c__builtin__
set
p0
((lp1
I35684353
aI225804290
aI200572937
aI230719499
aI203292684
aI47972365
aI232652816
aI201719829
aI44335126
aI38895640
aI213647388
aI227704872
aI233472042
aI37748784
aI221315121
aI50888754
aI208044083
aI201490486
aI214564920
aI211779641
aI40435771
aI32669757
aI49217602
aI213319751
aI232554569
aI229277772
aI218562640
aI222658649
aI222975333
aI201162855
aI41681003
aI227737710
aI45154415
aI221872240
aI212762737
aI229212274
aI202276984
aI234946683
aI224886911
aI50850496
aI234487941
aI213123206
aI43843723
aI230326412
aI47431704
aI213254296
aI214794393
aI203915427
aI50462885
aI34898086
aI37028008
aI208142508
aI42860723
aI207126709
aI216826042
aI46923968
aI233799878
aI228884679
aI210174154
aI34963660
aI228950225
aI211124438
aI231964887
aI230064351
aI203489504
aI38764780
aI208797936
aI49021177
aI229474556
aI232980735
aI228950280
aI44269833
aI229646
aI202146067
aI205619479
aI37617945
aI220889372
aI212620677
aI201883938
aI44826916
aI224887078
aI227803436
aI214204718
aI32932148
aI233275703
aI211026235
aI49381693
aI235962686
aI211845441
aI233406786
aI46498121
aI212173131
aI37683532
aI211714383
aI42172472
aI43090259
aI227136910
aI239042903
aI212009306
aI213614939
aI233374044
aI47513950
aI33423716
aI39944551
aI233570675
aI36727530
aI220782545
aI44925317
aI42893705
aI200540554
aI231997838
aI227803535
aI40534417
aI33194386
aI232161684
aI237753753
aI209027489
aI40731052
aI35684781
aI237076911
aI459185
aI200426424
aI235209140
aI50495925
aI40403389
aI220561855
aI234324418
aI208044484
aI32402166
aI211976268
aI39523746
aI43123151
aI32506324
aI232554968
aI200606177
aI226263522
aI221512163
aI207520228
aI207028710
aI207520235
aI46498284
aI217154029
aI211026418
aI232391157
aI34701816
aI233958143
aI205357564
aI234143829
aI33948165
aI237158487
aI202277388
aI237431554
aI524816
aI229966355
aI37847573
aI35062295
aI204112409
aI34112031
aI210403872
aI47841829
aI214237738
aI215155243
aI221288835
aI208175667
aI44663351
aI33620537
aI51380794
aI35881531
aI33653308
aI212075073
aI230687299
aI207323716
aI41452101
aI234357319
aI208142926
aI226624088
aI220267097
aI204210789
aI214270566
aI208536168
aI214499946
aI32834156
aI229769837
aI200311414
aI39387778
aI42959491
aI202605188
aI200835717
aI34079368
aI234128011
aI226579906
aI201491088
aI49152661
aI204276374
aI37520023
aI232205595
aI202009370
aI217481888
aI206439074
aI45744241
aI39955228
aI217285292
aI229311151
aI46695089
aI230785717
aI220299960
aI211255993
aI37356220
aI213615295
aI43451074
aI235340484
aI232293064
aI215646924
aI45712081
aI37782227
aI40665814
aI228852439
aI45384410
aI206701277
aI35405947
aI209257191
aI234307708
aI34244051
aI230720242
aI40764154
aI219611899
aI40305416
aI204276489
aI35160844
aI32539405
aI204931858
aI44892947
aI230851349
aI39486235
aI47350560
aI234914594
aI200803111
aI201491244
aI235963185
aI33030963
aI216761142
aI205751095
aI207356734
aI215515968
aI230884162
aI49054533
aI234652486
aI205837793
aI204899144
aI229966665
aI234423115
aI51348300
aI230130509
aI230916943
aI232424285
aI208929630
aI36012895
aI200639330
aI222364516
aI227967846
aI49578858
aI37323632
aI39027573
aI32932729
aI215548796
aI34243453
aI35629888
aI201720709
aI219251595
aI37415746
aI231080847
aI220576339
aI220038036
aI216296927
aI42696857
aI228918170
aI235356314
aI228393888
aI231539618
aI50529187
aI202703783
aI203588520
aI230998173
aI38316155
aI211616695
aI224887738
aI202441661
aI426944
aI214467524
aI214270920
aI205575671
aI232457165
aI39814096
aI200442842
aI213418972
aI211846109
aI214827173
aI203064295
aI206340264
aI227410934
aI35226616
aI217339391
aI35357692
aI206013440
aI209716243
aI40535064
aI207115780
aI203392027
aI45974556
aI236258333
aI212861984
aI232719394
aI37127213
aI232490031
aI200344624
aI230753332
aI209355829
aI203490358
aI214205496
aI38896698
aI219710524
aI233538621
aI226460735
aI238224455
aI227673160
aI214729803
aI34997327
aI49382485
aI205849689
aI220337679
aI36470970
aI204051985
aI50365553
aI215516275
aI209257594
aI206079100
aI228689023
aI219645057
aI207881346
aI66699
aI208962702
aI236061841
aI202605718
aI238060695
aI231048345
aI34276508
aI211387550
aI40404127
aI42599585
aI66723
aI212272293
aI229266621
aI220038317
aI209487022
aI220693683
aI222397620
aI211190965
aI232457400
aI231834812
aI237339839
aI50097014
aI45024456
aI41485529
aI205013199
aI212632797
aI47842528
aI226192251
aI225805545
aI34505963
aI47547630
aI231343354
aI234751230
aI207357186
aI233538820
aI201295109
aI39355656
aI47842578
aI222397715
aI34800918
aI232523037
aI51234056
aI202638624
aI216532258
aI232621352
aI235815132
aI51316013
aI211387694
aI235275571
aI233735476
aI217449782
aI204244283
aI218826045
aI230425921
aI206964038
aI35259719
aI200213832
aI32146765
aI219022671
aI41026902
aI232621402
aI231769435
aI38143324
aI233899357
aI221218143
aI206832997
aI39486824
aI219158076
aI36439404
aI38897009
aI202409335
aI235674716
aI212632955
aI234227078
aI51348874
aI32834957
aI207798509
aI32310672
aI46171538
aI44598677
aI32015768
aI214107550
aI232883617
aI210601383
aI236750250
aI212370859
aI211977647
aI208307632
aI207947190
aI34407863
aI44598712
aI48334268
aI214238654
aI211682751
aI43025856
aI232818113
aI231409091
aI223020484
aI226788805
aI50857414
aI221021643
aI214959568
aI38125816
aI51021266
aI231638483
aI222396665
aI223970780
aI38831582
aI207324639
aI227280353
aI230426089
aI233735659
aI235004372
aI46061138
aI50053373
aI233997814
aI38733310
aI33555969
aI231704077
aI226667437
aI216925717
aI36242967
aI33166940
aI35522101
aI210108681
aI50402911
aI202016316
aI226690622
aI238093888
aI231409218
aI40830533
aI46630476
aI202147407
aI208242259
aI204342869
aI207095383
aI236213860
aI201950810
aI43943515
aI208602717
aI228361824
aI49317483
aI38733420
aI215778926
aI236422771
aI37848702
aI237962879
aI229836420
aI35161734
aI50824840
aI212108937
aI44598923
aI34801293
aI237700755
aI36144788
aI201655961
aI200836763
aI231713733
aI32999072
aI51250849
aI32343715
aI40479687
aI230688430
aI38766256
aI239240883
aI203097784
aI49022656
aI232025594
aI230196930
aI43297739
aI40371908
aI202344137
aI231868107
aI231507663
aI229181136
aI204740216
aI200378070
aI49776347
aI42993374
aI200950053
aI34801385
aI207554287
aI34637552
aI237289769
aI224888569
aI215680764
aI234948350
aI32769794
aI45957419
aI233789057
aI223086345
aI232425228
aI48498445
aI217679632
aI237012758
aI202573598
aI41944868
aI231212842
aI215942958
aI229050166
aI216041274
aI220956476
aI233080642
aI232318643
aI211224397
aI37291854
aI39061329
aI47253331
aI34539353
aI210175838
aI208963428
aI208242533
aI43812711
aI223020908
aI230098798
aI207978508
aI210998931
aI43124601
aI235014013
aI200902527
aI200279938
aI40667011
aI219461238
aI203622286
aI207390610
aI212830101
aI237635480
aI35325851
aI48957342
aI201918369
aI38176678
aI230492079
aI230492083
aI230000565
aI209618870
aI218335159
aI227837882
aI202442683
aI209749950
aI202409919
aI235308813
aI42436549
aI31732875
aI35569996
aI200464034
aI36898771
aI213904115
aI216401881
aI209061856
aI233637859
aI235898860
aI213354487
aI207947770
aI37406189
aI32795648
aI50169862
aI38766602
aI33753099
aI219416589
aI35588118
aI229312539
aI230426652
aI35850272
aI219482150
aI228919340
aI209061936
aI209258549
aI39159862
aI32147524
aI222791753
aI239962186
aI223021133
aI232917070
aI50202706
aI213190739
aI48728152
aI32933981
aI210602079
aI229967969
aI235571298
aI216500325
aI205555819
aI46631022
aI47220847
aI31688817
aI217142974
aI211716215
aI210602106
aI209946748
aI42600573
aI232491135
aI45451396
aI232986305
aI47810703
aI32770198
aI46520004
aI225675422
aI32934050
aI207161507
aI206538918
aI213112519
aI201590964
aI206506166
aI238028983
aI233179320
aI231213243
aI218826948
aI219809994
aI209094859
aI201787597
aI41158863
aI201296082
aI32533539
aI47384788
aI231737558
aI45385946
aI50792667
aI41992570
aI219384038
aI217909482
aI36604139
aI215025910
aI32049399
aI215255295
aI206014722
aI49982507
aI32016648
aI237013259
aI207784207
aI206080272
aI48630035
aI409988
aI42273050
aI204084954
aI227248416
aI205621542
aI231049513
aI217188656
aI200655240
aI216533300
aI214960438
aI33294649
aI45975869
aI229771585
aI207620420
aI237065953
aI34539849
aI46172494
aI206276943
aI209324371
aI210602324
aI48564565
aI229083480
aI228819343
aI36866398
aI219089252
aI47153553
aI233048428
aI200114578
aI215550318
aI330100
aI36112757
aI39946615
aI236226941
aI230099327
aI202312067
aI229771653
aI47876487
aI202934664
aI233576172
aI208537994
aI235080075
aI208112016
aI45975953
aI239929746
aI49809811
aI216730007
aI212437404
aI222398879
aI228919723
aI40733101
aI201525678
aI234817969
aI228985277
aI35523009
aI226822595
aI211290567
aI231049673
aI36309455
aI205425107
aI41060823
aI238094809
aI207423963
aI43223520
aI233798707
aI49940963
aI209914344
aI37358057
aI231836144
aI38799857
aI37325301
aI229313019
aI227126357
aI233998848
aI231541249
aI48368136
aI210600364
aI238717451
aI230951440
aI41905240
aI207858777
aI207629402
aI204737054
aI50858529
aI31861851
aI215353892
aI226691621
aI229673521
aI226232883
aI203819607
aI211946044
aI47254078
aI38636095
aI216959552
aI222726721
aI220596804
aI231836236
aI208865872
aI34081365
aI218171991
aI229739102
aI220341804
aI232720995
aI42568294
aI211847783
aI38963817
aI212535914
aI232688236
aI45717266
aI236161648
aI205916787
aI209652347
aI202214013
aI231479061
aI209637257
aI206178950
aI229673612
aI229804687
aI233966232
aI200575643
aI47024796
aI200837790
aI34966176
aI203590306
aI166564
aI205556391
aI230545180
aI226986670
aI200379055
aI219253428
aI207784631
aI38111931
aI219384513
aI217746114
aI236423879
aI34376392
aI200051401
aI47483600
aI227470456
aI202148562
aI211028691
aI202345175
aI233638618
aI50924253
aI43354856
aI49764135
aI46664431
aI227759912
aI236325618
aI211028728
aI236522233
aI211815162
aI40372992
aI46140164
aI51415813
aI211269063
aI43649803
aI34671373
aI234457878
aI37554968
aI202484868
aI45583134
aI234982178
aI219876136
aI48728874
aI232688427
aI205982509
aI38519261
aI229968688
aI229641009
aI37489464
aI231344956
aI204901182
aI33688383
aI210996035
aI229247814
aI234228553
aI228723530
aI218368845
aI49949837
aI229542740
aI40700757
aI227478363
aI222137182
aI201952095
aI231770976
aI238029665
aI212798308
aI209324903
aI229182312
aI235670381
aI231148400
aI227445621
aI42339193
aI39141866
aI40930177
aI37653380
aI229739397
aI200772488
aI201886602
aI206310283
aI37849998
aI229444496
aI228395926
aI232343
aI204114840
aI215518105
aI34016155
aI201132957
aI39717793
aI213650340
aI37161894
aI35130279
aI49220521
aI38410055
aI227901938
aI35837769
aI212634553
aI220793791
aI207424449
aI202968008
aI38374345
aI227347413
aI200174756
aI230919135
aI232063483
aI215944166
aI214993895
aI203100871
aI240159733
aI32266068
aI231902205
aI233376769
aI36146178
aI228232201
aI232524810
aI207817739
aI215125004
aI227478544
aI46205972
aI232811695
aI236915746
aI213814312
aI227675181
aI211160110
aI39717936
aI32214066
aI216042549
aI43256887
aI204344376
aI217418811
aI234916928
aI47615048
aI33229901
aI33590351
aI40766545
aI36998231
aI240061529
aI222792798
aI227426832
aI202116195
aI208112741
aI219679847
aI212582930
aI208604270
aI50465903
aI42565383
aI49155192
aI32836740
aI46730373
aI224857224
aI217681034
aI50924683
aI205425804
aI208505998
aI232707949
aI238259345
aI230689942
aI209456279
aI217910424
aI298137
aI236457116
aI200805533
aI39226531
aI44739782
aI44502182
aI32836777
aI38571179
aI214764725
aI225774774
aI209194170
aI204246203
aI49417404
aI225742028
aI210177230
aI33402874
aI234228948
aI44076248
aI232590562
aI219712739
aI212995301
aI233573611
aI37981423
aI212864240
aI215919827
aI202050806
aI237636856
aI227314940
aI234897963
aI202018052
aI37863980
aI35182466
aI35130638
aI210734357
aI238259478
aI218926359
aI39128345
aI220728602
aI31755550
aI231869736
aI232328492
aI34344237
aI236850480
aI40635698
aI208440630
aI36048189
aI45930142
aI39456070
aI229477704
aI214172215
aI38899022
aI33492304
aI214666579
aI234098004
aI209096026
aI206048603
aI200150364
aI236359006
aI43453797
aI210177384
aI208895708
aI35458412
aI231305505
aI200700240
aI38636911
aI217550193
aI43781492
aI227315066
aI216436092
aI205688189
aI50204034
aI232066439
aI218795401
aI50695562
aI36146571
aI205884813
aI208571794
aI231542167
aI227708313
aI36801946
aI32713967
aI35491232
aI38309282
aI218664358
aI31788458
aI38800813
aI215420335
aI204049846
aI226430395
aI38571455
aI214273473
aI237505994
aI40146850
aI220597713
aI42012116
aI226954711
aI231247327
aI214240737
aI51383783
aI208702952
aI228920813
aI48631284
aI49909238
aI51219969
aI36277763
aI219614724
aI235802122
aI50630166
aI36245019
aI35786269
aI230133283
aI38178344
aI39292463
aI200609335
aI42582623
aI41815615
aI37129796
aI34442824
aI41064376
aI227479124
aI230796558
aI226758230
aI232197721
aI41520733
aI225709664
aI229740129
aI203132522
aI230348733
aI240271976
aI208866930
aI222826104
aI228658811
aI210895466
aI229150334
aI38595862
aI227672684
aI41823511
aI217288338
aI211816086
aI46567063
aI36671138
aI33205531
aI235048613
aI33984166
aI214896295
aI49057464
aI222826169
aI236392122
aI223940285
aI211160773
aI216001825
aI209325769
aI203198155
aI43552461
aI211226320
aI200347345
aI209622991
aI210505437
aI41193183
aI235933411
aI43814630
aI208965353
aI49680112
aI35131124
aI215682808
aI46337790
aI46534399
aI39784192
aI36933377
aI210112261
aI44207878
aI208965383
aI49016108
aI226135824
aI211760106
aI48992020
aI236916503
aI209096473
aI206245659
aI228986654
aI207359775
aI46239520
aI51285793
aI36900644
aI209883204
aI215453478
aI203525933
aI226234159
aI202379058
aI36859188
aI51416892
aI228986685
aI207851328
aI210308929
aI214404935
aI32509773
aI38240909
aI215322448
aI37359441
aI203394908
aI50302813
aI201021413
aI219221856
aI212963175
aI236457833
aI35688304
aI229805938
aI215682933
aI36114296
aI38768506
aI48697212
aI207458173
aI230330238
aI229314431
aI218697601
aI40931206
aI231935880
aI215256976
aI231706515
aI47124374
aI32149401
aI232558492
aI45354911
aI51416993
aI204246947
aI205164453
aI228790182
aI227577772
aI231536104
aI203299489
aI233738171
aI211783625
aI235179978
aI228626380
aI39555026
aI49254355
aI204115927
aI41816026
aI34639835
aI50663392
aI218796001
aI208932834
aI207491054
aI201494514
aI231870453
aI236678484
aI210145276
aI47484927
aI211554304
aI51417090
aI231018501
aI209195014
aI301057
aI202444808
aI209752076
aI230920205
aI35524622
aI203886608
aI39456785
aI205589774
aI226856982
aI204214295
aI230363161
aI209060527
aI215814172
aI46141474
aI32182314
aI235311163
aI219877441
aI43388996
aI201527365
aI32706641
aI34234345
aI231018584
aI39522397
aI38080607
aI51200699
aI219844710
aI219549805
aI35065969
aI211095666
aI208605300
aI217649270
aI233083002
aI229904508
aI39096446
aI228397186
aI233803908
aI236804827
aI235479104
aI222924938
aI208179339
aI39653520
aI215388314
aI36704412
aI217649314
aI240357540
aI35262630
aI208834728
aI208421575
aI43290796
aI40079534
aI235016371
aI44863668
aI39719093
aI33788090
aI216371387
aI218033027
aI47747261
aI209621184
aI216928449
aI40898758
aI41943756
aI39719116
aI208965837
aI232984784
aI228888785
aI206901462
aI214175961
aI228593883
aI46960860
aI205164767
aI231042427
aI39719145
aI235180266
aI206606574
aI237342962
aI219189491
aI49811702
aI201167096
aI230428923
aI36507901
aI233083135
aI208933120
aI235966728
aI234066189
aI229970190
aI48732205
aI38932753
aI208867606
aI37982488
aI218599705
aI208179482
aI202769114
aI34860421
aI231510306
aI34653346
aI226727986
aI234983730
aI44994869
aI228233531
aI235704637
aI219418942
aI220303680
aI222105922
aI205177569
aI235376969
aI39482689
aI206606671
aI31692856
aI232329564
aI45027677
aI48206174
aI204673379
aI44044646
aI36957585
aI212242792
aI203053116
aI49934625
aI48927089
aI35950965
aI213553527
aI49048980
aI216076667
aI226201983
aI218912832
aI33100163
aI218239367
aI43880840
aI234262922
aI211521932
aI202838413
aI38375822
aI42320621
aI215060880
aI216240530
aI222040470
aI232460699
aI233017758
aI236949920
aI216207780
aI236818858
aI203526578
aI217846195
aI205722038
aI208343479
aI229286951
aI212701629
aI32281023
aI43094466
aI233771459
aI202281423
aI48566738
aI214995411
aI208966104
aI38375897
aI218173914
aI39096796
aI235340538
aI209097182
aI41095652
aI41095654
aI226988521
aI206868975
aI37786098
aI231870963
aI228168187
aI33395200
aI46711553
aI234590730
aI238817805
aI201134607
aI50425263
aI211456540
aI200774176
aI230920740
aI31691303
aI205165099
aI221516346
aI218590645
aI200217156
aI33624648
aI33100361
aI229249613
aI201658958
aI231739984
aI233194254
aI209850969
aI220336731
aI42570335
aI50631264
aI204280417
aI35000930
aI43881065
aI227279634
aI43684466
aI216613651
aI235788393
aI220402297
aI232002170
aI212457579
aI37851791
aI207819412
aI211038899
aI218960535
aI38474394
aI33460894
aI219648671
aI213553824
aI233411236
aI213533223
aI216437419
aI35099315
aI214110900
aI211849917
aI228070078
aI233312959
aI235737799
aI204247758
aI234941901
aI211423955
aI229675733
aI31757014
aI219747031
aI37032664
aI209306404
aI211096288
aI39883493
aI236327655
aI229741289
aI234197738
aI46666476
aI202347245
aI46830322
aI231576307
aI50860788
aI218370809
aI228791034
aI214110221
aI238228226
aI51450632
aI234459913
aI231108055
aI43881231
aI32550360
aI203625237
aI211096346
aI34804507
aI237146910
aI223008901
aI32424752
aI48653206
aI50336557
aI227611439
aI235311922
aI50195934
aI40244024
aI38497759
aI203199294
aI206672707
aI216765253
aI50467654
aI216634187
aI209163086
aI40375119
aI229610323
aI231052116
aI38376282
aI49222491
aI202412892
aI202249053
aI211850078
aI201179964
aI227709802
aI210211691
aI216241013
aI205984630
aI232723322
aI215815036
aI48894845
aI214897534
aI215089984
aI46061131
aI48763779
aI233411461
aI39457674
aI239899531
aI33264526
aI34739089
aI46830491
aI211129245
aI215651232
aI39457697
aI207393701
aI234984359
aI205689768
aI237376428
aI35361710
aI46470070
aI228197193
aI431035
aI42537917
aI201528256
aI236858870
aI206345160
aI230134729
aI208016334
aI40866769
aI221942744
aI31986649
aI201780730
aI201003998
aI235508705
aI42832869
aI50140135
aI50041833
aI204116972
aI231019501
aI44045300
aI211588086
aI36901882
aI204084219
aI35197948
aI205362173
aI231379968
aI231642114
aI49222659
aI38966279
aI209753097
aI207896457
aI221490691
aI234230805
aI213062679
aI203756571
aI232854560
aI235541538
aI40637479
aI211063855
aI215716919
aI202871866
aI46666813
aI229839938
aI216929347
aI206967876
aI232789061
aI239408199
aI211981385
aI227873866
aI37557326
aI221779029
aI214668375
aI43848794
aI398431
aI47912036
aI209065067
aI209196142
aI40768623
aI233346161
aI231773302
aI34051191
aI214647658
aI203592835
aI236164233
aI201462924
aI43127952
aI226890904
aI209786009
aI218567837
aI226464928
aI222015003
aI229414054
aI230855853
aI236393648
aI206214321
aI36934834
aI208344244
aI227447990
aI203528393
aI47092924
aI237212863
aI33264833
aI234624194
aI228332741
aI228988103
aI235279560
aI44176586
aI214865101
aI216732878
aI202839249
aI32576722
aI209687763
aI209949910
aI237737176
aI208377049
aI205984987
aI212086309
aI228758756
aI233931644
aI209229037
aI43881710
aI210670831
aI37557488
aI227775732
aI33801086
aI235476217
aI216896765
aI206259770
aI231249156
aI47191301
aI236459273
aI46404879
aI228824340
aI226694422
aI44307743
aI231478560
aI43128097
aI40244514
aI39490852
aI217093415
aI207754536
aI201135402
aI209556781
aI214701358
aI43062578
aI33658165
aI37590327
aI48895298
aI45974411
aI235181383
aI233248072
aI206607691
aI207295820
aI214668621
aI40015186
aI216405332
aI36934997
aI200119638
aI227382622
aI39213285
aI228169065
aI210572653
aI33494385
aI233543028
aI232199542
aI235541879
aI210295019
aI229676421
aI34706824
aI213882255
aI204608915
aI48371092
aI227382678
aI46775839
aI34051481
aI226203039
aI231512304
aI227153314
aI212080035
aI40572332
aI34714488
aI5555
aI220960181
aI230495672
aI214963643
aI47388094
aI40637889
aI236754372
aI51156427
aI213489105
aI201758162
aI209917397
aI217028061
aI33723870
aI201299423
aI216241632
aI216536545
aI203232747
aI220993007
aI202282481
aI39622130
aI48326338
aI43816449
aI203429378
aI201062726
aI206509579
aI47093261
aI136719
aI213063185
aI45684247
aI209655376
aI236000793
aI48272928
aI40769057
aI231249446
aI200218157
aI210474544
aI209983028
aI32806453
aI38475318
aI39720506
aI200480316
aI32135434
aI210703938
aI213292612
aI212349378
aI208344657
aI210441813
aI216667735
aI47355481
aI213489242
aI33953372
aI219977311
aI219682405
aI204215913
aI230168171
aI206673516
aI228169327
aI238360177
aI213096723
aI215029368
aI210900604
aI210671230
aI216602242
aI211392132
aI234919557
aI50108040
aI47715977
aI398987
aI237311628
aI213653137
aI46405266
aI39622291
aI49092248
aI226760348
aI231380639
aI233516656
aI42719515
aI39753389
aI50075311
aI230954672
aI223254199
aI42538680
aI231872186
aI235378365
aI216455456
aI204871367
aI231642828
aI48273101
aI227251930
aI209917664
aI210343649
aI38442725
aI207886058
aI207460076
aI38637
aI45061872
aI34543347
aI203003636
aI219485942
aI219846391
aI31856379
aI231282431
aI37099270
aI42735375
aI235018001
aI203298578
aI228562709
aI228235035
aI218306337
aI236590884
aI210149667
aI210179883
aI40343858
aI215095086
aI33068847
aI209622833
aI32806707
aI48863030
aI35591992
aI49223481
aI202217278
aI214800191
aI206739265
aI201627461
aI227710791
aI203233096
aI36443982
aI237803343
aI46995281
aI219387731
aI33986388
aI213784406
aI214144859
aI39720796
aI203659101
aI37754719
aI49256288
aI221189986
aI34810522
aI202708840
aI226810172
aI236370616
aI200415086
aI200316793
aI36050811
aI237039253
aI232101761
aI214144900
aI234264898
aI231151513
aI218339226
aI220764062
aI239015839
aI229185440
aI231053218
aI232003497
aI208181162
aI234526638
aI208279473
aI236558258
aI46471095
aI234067896
aI201103292
aI33986502
aI39458763
aI204085198
aI220960719
aI237705169
aI235182034
aI217122414
aI205363163
aI205199324
aI236001246
aI226760673
aI220759035
aI201922534
aI209950696
aI42571758
aI229316592
aI43489265
aI34052090
aI51020800
aI205363202
aI232200199
aI44505431
aI47126544
aI213850132
aI237574167
aI202745311
aI228694047
aI37034016
aI226873426
aI39852070
aI226891815
aI234887208
aI223746093
aI44537906
aI230234163
aI34871348
aI206805048
aI215423036
aI38606910
aI238819391
aI40736834
aI37722183
aI234920008
aI222632009
aI32675915
aI223320142
aI221190228
aI41463482
aI227907681
aI49289315
aI230447463
aI32872566
aI34445433
aI41064575
aI47381441
aI50108551
aI202315915
aI205872449
aI219208045
aI216733840
aI219617425
aI32020627
aI221354133
aI228759702
aI216242328
aI49485977
aI238131363
aI216078507
aI219388076
aI47110514
aI334000
aI49158321
aI213948596
aI223942837
aI230824118
aI228814537
aI34805947
aI209651034
aI34248894
aI235182272
aI239376584
aI39622857
aI51321038
aI232167637
aI233904344
aI231020764
aI228071646
aI34674913
aI46536930
aI208935139
aI36903140
aI203397349
aI213588201
aI46635243
aI36542700
aI49027309
aI233217322
aI230267120
aI229972213
aI229873911
aI231135615
aI36837629
aI215849215
aI232843006
aI38246672
aI222632209
aI238524691
aI233281818
aI233117979
aI234641797
aI229382436
aI33511814
aI210868522
aI33724715
aI36935982
aI36870448
aI226728242
aI42735923
aI231741748
aI39459129
aI33189599
aI227645758
aI236558657
aI42277186
aI204577096
aI34216268
aI213784910
aI212337720
aI232528210
aI235772245
aI217422167
aI210109498
aI49944928
aI39393637
aI208968041
aI37165419
aI232462701
aI49322350
aI220567922
aI208542099
aI34609525
aI220600694
aI213555575
aI220141950
aI234887551
aI232331648
aI39464683
aI33681132
aI49748364
aI39754126
aI229808530
aI227645843
aI38672793
aI46373272
aI212998553
aI228923807
aI237115811
aI35295003
aI236100013
aI465329
aI200743350
aI45193655
aI201955743
aI225712572
aI227908031
aI32446914
aI227187139
aI50665925
aI200481222
aI237476296
aI227416523
aI229087693
aI203725262
aI232200656
aI203168210
aI43358681
aI236946511
aI33552470
aI207788510
aI222861795
aI37001700
aI210672101
aI33888742
aI229364491
aI137707
aI233675244
aI235543030
aI205298169
aI37034491
aI226040324
aI220600838
aI217422345
aI38312458
aI51223053
aI207395342
aI214440473
aI50545754
aI43194910
aI209197599
aI232167970
aI46176810
aI213097004
aI43817520
aI49879604
aI35559995
aI212004618
aI33462857
aI219978314
aI228760140
aI35494477
aI208116309
aI214866521
aI228760154
aI237967963
aI229775966
aI203004512
aI230955618
aI230562409
aI216734317
aI206281328
aI234035827
aI233282166
aI209853050
aI216439419
aI205691522
aI216275591
aI39361160
aI227252878
aI233347732
aI220338837
aI39262873
aI227154586
aI230529695
aI37624481
aI204184229
aI47389350
aI37526184
aI203430569
aI238426800
aI51108296
aI236690098
aI211557043
aI34970301
aI233446082
aI213031619
aI34413254
aI38640333
aI50534861
aI201398993
aI35265234
aI230136535
aI228596445
aI235969247
aI531168
aI229645028
aI43380518
aI229251817
aI233380588
aI229382895
aI216767216
aI39918325
aI238164727
aI206177407
aI39787262
aI201267972
aI45259538
aI35658517
aI209001241
aI230628127
aI39712
aI226864944
aI219421478
aI40901415
aI34020138
aI214342448
aI217422642
aI33069875
aI237312823
aI213556381
aI234036026
aI206740283
aI236231487
aI212704069
aI220928839
aI51026761
aI217964376
aI234953558
aI47968057
aI32643930
aI43260763
aI33069917
aI214866785
aI50862948
aI229874150
aI221453161
aI231906157
aI211212777
aI216931194
aI203955067
aI38542208
aI207657860
aI45882249
aI233773971
aI235264494
aI207264669
aI217619359
aI238033827
aI213261221
aI231381926
aI202939304
aI37586076
aI229940142
aI210420893
aI33110578
aI42441653
aI203856824
aI200956404
aI228891580
aI209558461
aI202611646
aI35363779
aI230693828
aI32840647
aI231840715
aI226237389
aI40715427
aI219585492
aI208509909
aI213228505
aI48569310
aI214506464
aI238164961
aI230595554
aI35199971
aI234724326
aI227351527
aI231552224
aI39361519
aI209853427
aI226991095
aI229219320
aI229678076
aI216472573
aI233348098
aI207461385
aI213818379
aI233806860
aI38476814
aI31792145
aI219913234
aI48339989
aI47553560
aI205626394
aI201104416
aI232168481
aI48648274
aI39296037
aI35036198
aI206380075
aI49355821
aI210672690
aI42318629
aI234887689
aI229973050
aI44036378
aI213556286
aI228236354
aI222043207
aI45259848
aI49421386
aI208018508
aI34184270
aI38361613
aI203365457
aI231644244
aI226597973
aI228629592
aI237837404
aI35593313
aI38640740
aI34937958
aI49585259
aI33922159
aI226499696
aI218963063
aI210312321
aI208936068
aI205200521
aI217957570
aI47127696
aI38870164
aI42408473
aI234364061
aI44080286
aI35658912
aI44670115
aI49290407
aI222938311
aI206052526
aI213097647
aI42653137
aI220732594
aI50109624
aI50207937
aI230759618
aI225713348
aI214965445
aI41983176
aI232824010
aI227286220
aI208640546
aI211590350
aI229481679
aI215391441
aI201497816
aI37854426
aI205561055
aI201727200
aI237399931
aI226467047
aI215227625
aI31906449
aI230366451
aI212180213
aI206183671
aI224107768
aI231251193
aI32742651
aI206118140
aI235816149
aI218832128
aI37920001
aI227810562
aI39591174
aI33659436
aI208641298
aI46243095
aI202579227
aI209591580
aI217521440
aI227876136
aI42802474
aI34615175
aI200836317
aI42138601
aI234200379
aI201694529
aI231316804
aI51027271
aI219918222
aI39296342
aI229005881
aI41819481
aI203398497
aI215424357
aI202841451
aI240000367
aI233315696
aI229940594
aI36150644
aI211131769
aI35003771
aI48340348
aI225680766
aI32284031
aI232398212
aI35855749
aI208641780
aI237477276
aI234429854
aI219618719
aI35233184
aI217357729
aI219389346
aI44998053
aI230661542
aI205462951
aI32316840
aI202374557
aI227876281
aI200404895
aI233053628
aI233314890
aI200187328
aI204053956
aI227024327
aI216276426
aI32228599
aI203398604
aI222141902
aI34774480
aI205331922
aI47062488
aI230989280
aI227024355
aI227220966
aI227712487
aI237033
aI209919468
aI231808494
aI208117237
aI208117238
aI35266043
aI33660413
aI229809670
aI204283401
aI31694346
aI44473881
aI214146586
aI233479711
aI215031328
aI233446951
aI214015528
aI49684014
aI32841265
aI51355188
aI50142774
aI235642425
aI229219901
aI201530947
aI237927717
aI45260363
aI230563404
aI233643597
aI236265040
aI39067220
aI207330906
aI35855965
aI214408798
aI36937315
aI49716837
aI50077293
aI225713775
aI226369142
aI51355256
aI50470522
aI217390719
aI231841410
aI229318277
aI227843718
aI171655
aI32087688
aI227450505
aI38772368
aI44048018
aI230989459
aI202415768
aI211842669
aI204250788
aI231677605
aI228662954
aI205594285
aI37166773
aI237739702
aI237838007
aI45800052
aI220503740
aI233025482
aI202612418
aI38641347
aI219782852
aI229678797
aI206970574
aI208117456
aI35659479
aI236494552
aI200056538
aI227319520
aI220438241
aI38812851
aI213327590
aI50372336
aI212868852
aI205675134
aI230646612
aI38280955
aI230268668
aI37635370
aI204316415
aI234757890
aI237510405
aI35322327
aI208543495
aI34774792
aI203857674
aI237539707
aI228925206
aI233316119
aI33890073
aI209919771
aI208412447
aI234692384
aI50765602
aI212770597
aI201858854
aI210575143
aI48733992
aI233611049
aI37429037
aI39722799
aI200449843
aI229941046
aI226565944
aI48373563
aI38227983
aI211132226
aI226828105
aI215850830
aI204808018
aI235741018
aI45064028
aI226533213
aI44900190
aI201334625
aI50339682
aI237150054
aI207232871
aI202219376
aI48602994
aI203169652
aI234594173
aI234777635
aI234987394
aI221749123
aI39159105
aI236068746
aI214572939
aI48308109
aI41492366
aI203104143
aI208805779
aI223879061
aI229482393
aI200581019
aI226909497
aI216792539
aI229628571
aI49192868
aI227471345
aI38641581
aI200744879
aI231382961
aI42737586
aI36970420
aI236986295
aI216637373
aI49749954
aI234465574
aI227286982
aI226238407
aI208576458
aI33923023
aI239673299
aI222765014
aI201999695
aI228597724
aI204906461
aI237674465
aI200646627
aI207167466
aI48514386
aI37953524
aI234725368
aI210739196
aI37036029
aI202481662
aI220340223
aI210649480
aI201596932
aI226369546
aI227024914
aI226762772
aI232071193
aI219881501
aI232206341
aI210477089
aI211099694
aI45817904
aI38903857
aI34218034
aI213557299
aI37462071
aI216834112
aI42747233
aI35430472
aI33792073
aI202776650
aI51355723
aI124664
aI234549262
aI205496407
aI218570842
aI227319902
aI201295205
aI42279009
aI215818344
aI228991084
aI50012275
aI216735860
aI211737278
aI221061238
aI204191085
aI214343801
aI221323386
aI231383164
aI218112130
aI38740102
aI211296393
aI228466829
aI203202705
aI217260179
aI227745940
aI47423637
aI34447518
aI227123362
aI211099812
aI49153393
aI221356202
aI230695085
aI211329203
aI233087158
aI49324220
aI215085088
aI231022786
aI202219722
aI221971831
aI201728205
aI221618382
aI31989968
aI200057042
aI235970775
aI42279128
aI227713242
aI218374363
aI48973178
aI48832734
aI200745187
aI200188133
aI227942639
aI230400241
aI214442226
aI206577912
aI49750266
aI38379786
aI217817363
aI211525908
aI218374422
aI230531353
aI49488156
aI32383267
aI216146213
aI228368683
aI215032110
aI229450032
aI43491643
aI218571068
aI47007114
aI228794692
aI218800453
aI40444230
aI215425357
aI34428711
aI229515604
aI46211414
aI214638936
aI208378596
aI43484559
aI208249181
aI46801249
aI204841314
aI238494056
aI216965485
aI228958575
aI44999024
aI214212981
aI227549562
aI203039101
aI49619326
aI227058049
aI39068039
aI31793546
aI44343691
aI39788941
aI44802448
aI232694165
aI232694168
aI212771231
aI42343152
aI37495203
aI46395462
aI206086566
aI230793639
aI39559593
aI228794797
aI218735028
aI211820985
aI236954043
aI211100092
aI34513342
aI33497536
aI34546115
aI434637
aI227647951
aI219324881
aI43861411
aI230466004
aI202219993
aI229450209
aI232006114
aI214180327
aI50340328
aI203858410
aI234063271
aI34120172
aI217424365
aI44647848
aI207788798
aI201728504
aI225681913
aI40280575
aI234562049
aI44081667
aI207594003
aI50307605
aI229745176
aI215851557
aI235577894
aI231416361
aI41394732
aI44605998
aI234369117
aI238887475
aI227811894
aI211704585
aI213426745
aI232432186
aI233972283
aI227859211
aI231711304
aI43000394
aI212771403
aI201040461
aI215229009
aI45729209
aI214966872
aI235446522
aI220602970
aI31597150
aI51179621
aI230695520
aI51389030
aI202890001
aI200057453
aI48964207
aI234824305
aI215491186
aI204284531
aI219357816
aI203465337
aI228787647
aI51159678
aI234587584
aI201302658
aI226927236
aI44606090
aI234201740
aI212017805
aI227189392
aI219652757
aI50373271
aI35955352
aI212345498
aI226370203
aI40706716
aI235020959
aI228631202
aI226861733
aI31793830
aI220491889
aI219161260
aI201761457
aI35365557
aI33235643
aI236045771
aI201532100
aI227025607
aI35496648
aI231350985
aI48931531
aI213099220
aI237937370
aI226843429
aI229188321
aI215392994
aI218329212
aI46342891
aI47620849
aI213255635
aI33334004
aI48308984
aI207332093
aI226304769
aI31957767
aI232792843
aI208413452
aI214691970
aI205129479
aI230826769
aI36676371
aI204612372
aI47883035
aI37593885
aI226140961
aI231744290
aI234136359
aI204645162
aI209265451
aI44278573
aI39330606
aI35726128
aI200155955
aI33891124
aI32867806
aI221753481
aI223338259
aI215986314
aI215262014
aI46244671
aI230695744
aI216507201
aI201499460
aI216259382
aI47260486
aI230826825
aI200221521
aI206447443
aI209036119
aI236168028
aI46211938
aI233610043
aI211723109
aI201958253
aI225751187
aI238558015
aI232006524
aI39691135
aI203039619
aI217930561
aI38577032
aI202351503
aI49685398
aI227189658
aI39363484
aI209724325
aI231449510
aI217850796
aI216277933
aI35595184
aI435125
aI235709368
aI39887802
aI45917117
aI228421792
aI49357762
aI236528579
aI37561287
aI214180809
aI234300364
aI210904014
aI214967248
aI38380497
aI226894802
aI232039381
aI235807703
aI234919519
aI50832347
aI207430623
aI42378209
aI233791291
aI206283756
aI230868477
aI227025904
aI46048250
aI33793020
aI204973058
aI228893699
aI209888261
aI211002375
aI231515145
aI49652746
aI204678155
aI40346639
aI204776467
aI41100311
aI33334300
aI231121951
aI228957019
aI39363623
aI201040940
aI210641966
aI230138927
aI206218288
aI228500536
aI50406460
aI40412224
aI226763843
aI39986246
aI228402249
aI213558351
aI233612369
aI42935379
aI202581077
aI200831161
aI235021404
aI202875998
aI235185247
aI216592572
aI46802034
aI230335609
aI207784138
aI214803582
aI206964245
aI37987456
aI234336448
aI35005570
aI228729988
aI36938885
aI223454342
aI208053385
aI205956235
aI213168322
aI236037262
aI48899220
aI38722414
aI31761563
aI202482845
aI43230366
aI233924415
aI230204578
aI37594275
aI33858727
aI200254634
aI35909833
aI44737721
aI237282491
aI218375356
aI217326783
aI50013377
aI201532615
aI50537672
aI36729036
aI215327947
aI228074706
aI36218071
aI40668180
aI50046177
aI209888483
aI213951717
aI237842641
aI229352680
aI238986478
aI42902767
aI206972145
aI229254388
aI37037304
aI47752445
aI210158514
aI212589440
aI203564295
aI214279432
aI201827593
aI45969623
aI49161487
aI31958288
aI50177300
aI235054357
aI230958359
aI50415151
aI233873136
aI200287519
aI223946024
aI36709675
aI204285236
aI202830047
aI232465724
aI228762949
aI207824202
aI233776466
aI33301844
aI33080890
aI37037406
aI214053093
aI231485670
aI35497318
aI231974256
aI33604943
aI208537150
aI218178934
aI36676989
aI219618197
aI205194816
aI202089858
aI47424900
aI42374
aI205038996
aI205727128
aI40707482
aI215019759
aI227542597
aI35431842
aI39429543
aI33203626
aI220328178
aI203826606
aI202581424
aI48899507
aI217818550
aI50734526
aI222045637
aI468422
aI207332807
aI232039881
aI213460427
aI227892130
aI233547218
aI234825171
aI202745302
aI229404921
aI238312357
aI211592673
aI47523298
aI237869990
aI50669035
aI210611341
aI33105394
aI220186195
aI232105460
aI41478542
aI36644346
aI233959679
aI203892220
aI233186816
aI236149675
aI229352968
aI47269463
aI200451596
aI34285069
aI39691791
aI201500179
aI39738287
aI222602781
aI42540
aI200091184
aI44481334
aI222799414
aI213263927
aI216802872
aI38708793
aI34580031
aI221587008
aI230729281
aI50341442
aI207955523
aI226149985
aI230172236
aI216376914
aI232171091
aI205366869
aI229582428
aI234989149
aI239248993
aI208053858
aI216016485
aI47345937
aI204514922
aI230598251
aI230270577
aI50112115
aI232105593
aI32614012
aI34514561
aI208152194
aI215697003
aI45033098
aI203957899
aI46573199
aI46212752
aI33760914
aI236368563
aI207824538
aI231461292
aI232583450
aI237848177
aI47785644
aI234694323
aI210478773
aI43460281
aI219457214
aI202876615
aI203302600
aI42411728
aI233711313
aI49030866
aI211560148
aI221357790
aI226928353
aI228894435
aI31958757
aI45819622
aI206120684
aI32057074
aI221325045
aI105428
aI37889787
aI205498108
aI42051331
aI239576838
aI216737554
aI45655827
aI227682070
aI213526295
aI233252636
aI234989341
aI47523616
aI231843623
aI39692077
aI47032110
aI232741853
aI200814899
aI48703288
aI208611129
aI34350913
aI229812035
aI223225669
aI210675527
aI218244936
aI210028172
aI202319693
aI200451922
aI210937686
aI210741082
aI42641247
aI200484705
aI228206434
aI209659749
aI212871016
aI50868540
aI213526379
aI235054959
aI208414576
aI32909169
aI226568051
aI36513652
aI51185248
aI206415740
aI34842500
aI204351370
aI46770059
aI203040652
aI206007877
aI203433871
aI37791632
aI228992917
aI226895766
aI215692748
aI200320925
aI216639397
aI213165995
aI40351136
aI233547699
aI32286644
aI219555766
aI48768951
aI235972542
aI34056127
aI202647488
aI237250500
aI215132101
aI218671049
aI234039246
aI228698063
aI44997624
aI223029202
aI208807891
aI39593940
aI211494872
aI204162724
aI233220058
aI231647196
aI203204575
aI37908816
aI218671078
aI230369255
aI202975211
aI231876588
aI37038063
aI213952497
aI44476403
aI38938615
aI232237048
aI35661817
aI236922874
aI215492603
aI39069692
aI226863101
aI35694592
aI47392771
aI46179884
aI50374663
aI215754761
aI227747853
aI227682321
aI204122130
aI210511894
aI236169239
aI204135428
aI230303772
aI207988765
aI230762526
aI203958306
aI214050851
aI208873508
aI209233970
aI35891253
aI227138569
aI211560504
aI200091707
aI232597570
aI201959495
aI220473416
aI47163466
aI203630667
aI218802254
aI212772943
aI230565969
aI33840142
aI237381724
aI43755615
aI39200865
aI49490021
aI38512748
aI35694703
aI217852019
aI48900216
aI209168507
aI43165823
aI36448387
aI209954951
aI210774152
aI228567178
aI235022475
aI50079890
aI46226457
aI48957124
aI207267995
aI50407580
aI44411038
aI227322020
aI230107304
aI232343239
aI218572972
aI229648557
aI203401391
aI208908659
aI35825852
aI32450752
aI37071042
aI239708357
aI34973895
aI46999755
aI233679052
aI229255375
aI202844368
aI39594193
aI37398740
aI34810069
aI230729945
aI220276954
aI213919963
aI45123281
aI221653227
aI51456238
aI219949304
aI228665593
aI46803195
aI235350270
aI215460095
aI213035267
aI216199553
aI49948937
aI209725708
aI234779010
aI234957074
aI216377622
aI51423512
aI217852187
aI234524575
aI209299750
aI230238503
aI218551522
aI39561514
aI229091627
aI45426988
aI36677933
aI46016816
aI228591326
aI220375357
aI238393419
aI226634054
aI230795591
aI227780938
aI221555028
aI38742364
aI213638202
aI233548126
aI33559149
aI49785185
aI229288292
aI502117
aI49295761
aI216246632
aI38873455
aI201927029
aI236202358
aI231745913
aI228206983
aI47819149
aI212904335
aI210741649
aI212196419
aI217590168
aI32975258
aI234924446
aI204024223
aI229246704
aI229681573
aI228665766
aI204188077
aI200288687
aI228465736
aI36383161
aI205105596
aI233220541
aI46246334
aI208349636
aI211069387
aI47655379
aI38545879
aI223095259
aI221620702
aI233253347
aI226991185
aI228487591
aI37923311
aI201599472
aI237651710
aI49457656
aI211069438
aI49585237
aI34817792
aI240134658
aI42687574
aI41200135
aI49129993
aI223455755
aI217360908
aI201426690
aI215986607
aI237414940
aI229583393
aI210905634
aI226142756
aI35498533
aI214116902
aI34187817
aI210217515
aI201730604
aI47346098
aI219425326
aI234531377
aI231549499
aI202721034
aI215329351
aI33696329
aI203369039
aI221719121
aI35859029
aI44378715
aI38546012
aI44640862
aI235809376
aI228108907
aI231713396
aI210119285
aI36612726
aI50309751
aI40905338
aI48278140
aI40020610
aI231352965
aI47360648
aI203795083
aI206285453
aI208349842
aI203860629
aI226739993
aI371354
aI41855645
aI31763104
aI218213028
aI230402725
aI203205292
aI208939697
aI40929054
aI204581567
aI49752770
aI48671428
aI200583878
aI228207303
aI37366481
aI238758611
aI232762071
aI202091225
aI230238940
aI235252445
aI48409312
aI214706915
aI200059623
aI237677289
aI229223147
aI34075090
aI49818350
aI207170288
aI235350769
aI210676471
aI232270587
aI210447102
aI205304277
aI40184577
aI50998020
aI404231
aI201108232
aI234793739
aI220965646
aI216705808
aI46705429
aI227978006
aI201272089
aI215231259
aI201075484
aI235088674
aI236464933
aI232303399
aI50080554
aI205728555
aI236170029
aI42347312
aI49883954
aI46115642
aI50932540
aI201468735
aI34712384
aI36547400
aI36186956
aI221752143
aI217761592
aI228207442
aI235252569
aI205695836
aI49236523
aI237087587
aI51358564
aI222065126
aI40381287
aI45198184
aI43101041
aI217099122
aI236596084
aI218246005
aI200420216
aI234331284
aI44936058
aI41560960
aI35746283
aI47033221
aI212872072
aI206875539
aI39725972
aI228371364
aI219065253
aI37563304
aI32517035
aI205695917
aI50867118
aI41888687
aI32562967
aI39005108
aI231812025
aI206810042
aI212688031
aI48376767
aI47881376
aI238121462
aI227290055
aI209759176
aI233781538
aI213167055
aI45394897
aI35695587
aI273380
aI32578727
aI213855213
aI48901105
aI33663987
aI216083447
aI37301242
aI213199867
aI220186059
aI230599681
aI200911877
aI232139782
aI213479937
aI203992073
aI234826843
aI215788563
aI207268884
aI214576162
aI212184101
aI38710310
aI34679849
aI209955883
aI202681389
aI235318319
aI46214193
aI205007922
aI233155636
aI235940931
aI232565829
aI208022601
aI37858378
aI231976012
aI211823699
aI234990676
aI222964821
aI236792919
aI236170329
aI223259738
aI34483291
aI48868444
aI45755489
aI42675299
aI205565030
aI216869993
aI38799207
aI40235538
aI203566194
aI229813365
aI228764791
aI33107068
aI236137602
aI35761284
aI37497990
aI203074698
aI43756685
aI47457991
aI218573968
aI43822228
aI41262276
aI427887
aI111130
aI38954815
aI208579748
aI229452970
aI202714284
aI32877741
aI39361736
aI37137586
aI214215865
aI219786429
aI200289470
aI233450689
aI214936771
aI222043169
aI47426758
aI34286793
aI41430219
aI230304973
aI33303761
aI47885522
aI203959507
aI235646165
aI214031567
aI235973853
aI228192779
aI229387491
aI47754468
aI200387814
aI240874
aI215362799
aI210709747
aI209923319
aI229166068
aI230206718
aI235908351
aI42812362
aI49818881
aI203316438
aI209005831
aI213462280
aI234138893
aI48540942
aI34712850
aI39431445
aI203664663
aI45755674
aI48704795
aI238136604
aI208482865
aI210218282
aI219491627
aI229780780
aI231263608
aI34516274
aI50539828
aI35859771
aI215657788
aI32648512
aI215788870
aI202386760
aI232041801
aI33303882
aI242231
aI206417230
aI236137807
aI234958160
aI230042962
aI49285006
aI233581911
aI209956186
aI207334748
aI32746850
aI204942691
aI227585381
aI233811303
aI213429609
aI210076751
aI33009006
aI33009007
aI203369842
aI205670291
aI227585403
aI40545660
aI51293566
aI216837514
aI200781415
aI213921173
aI32229273
aI231222681
aI207891870
aI232304040
aI237635486
aI210316731
aI32667733
aI234204609
aI39038409
aI214326520
aI229092824
aI215559642
aI209799077
aI230895072
aI34975203
aI43822564
aI227122428
aI213822955
aI44641774
aI234118397
aI219229686
aI234270200
aI46050812
aI203730435
aI44473601
aI208449037
aI48672274
aI237383187
aI201174548
aI232569312
aI230469143
aI205631001
aI227280815
aI40906271
aI207564320
aI41430565
aI233614887
aI48901673
aI34516523
aI35860013
aI227981111
aI227126836
aI39038517
aI228044345
aI200257082
aI38514237
aI43101758
aI210405301
aI232566350
aI226111061
aI50015838
aI37210043
aI32976484
aI211988071
aI215002728
aI202813037
aI31698542
aI215232112
aI205467251
aI221448126
aI227651191
aI226242168
aI50048636
aI32648829
aI39825031
aI232107656
aI205237898
aI230436495
aI228765332
aI217558678
aI209104535
aI206505924
aI33336988
aI49786536
aI204834759
aI226995884
aI274094
aI213069488
aI209105523
aI31895221
aI211103417
aI229289658
aI48443067
aI220475070
aI237022911
aI233680586
aI237612748
aI45919952
aI39628497
aI231321300
aI205106904
aI209137372
aI203992811
aI209367677
aI212348659
aI48377588
aI207269624
aI204310142
aI201928447
aI39759619
aI215166724
aI207128537
aI46996783
aI41856801
aI41561891
aI34352932
aI202371718
aI209170216
aI236728111
aI38842160
aI202420020
aI229977909
aI236728119
aI232140604
aI204058429
aI206516030
aI236072767
aI214249280
aI201305922
aI32649029
aI234270534
aI230508513
aI32485192
aI35761993
aI226275148
aI49426255
aI34615120
aI49798457
aI231649113
aI35237726
aI39038820
aI214740838
aI41168748
aI33763181
aI203632495
aI226799473
aI202813298
aI227480293
aI43528055
aI49295230
aI44019588
aI209116481
aI218597622
aI38481801
aI210350743
aI208318350
aI233818093
aI40382352
aI227815313
aI40907417
aI32699034
aI211136416
aI202157988
aI34326267
aI230535084
aI47377274
aI44871601
aI46837686
aI37498810
aI47951804
aI37203902
aI214708162
aI222998467
aI212512712
aI43397066
aI209405943
aI237580239
aI34034171
aI236269521
aI37760979
aI234663897
aI40120282
aI207335395
aI209137636
aI205074408
aI33533930
aI209072107
aI211103724
aI203501550
aI36638374
aI236138480
aI207564787
aI201830394
aI211300348
aI35008509
aI218836991
aI203075585
aI38023170
aI202387461
aI50933772
aI231976973
aI227815443
aI36564179
aI213954605
aI227127343
aI33009714
aI212643891
aI211759157
aI206009013
aI33173575
aI229781579
aI232009805
aI235122774
aI203206745
aI45985885
aI230830174
aI31633505
aI201896034
aI33075299
aI203567208
aI229536444
aI209858671
aI40120432
aI47198326
aI45297785
aI39367359
aI232009853
aI230076542
aI219295873
aI202911881
aI217231498
aI49787019
aI230547469
aI237678733
aI36679824
aI230666386
aI227946643
aI50180244
aI214474095
aI228077733
aI230961322
aI210841772
aI205697198
aI213898812
aI44282034
aI51392692
aI35500218
aI38908096
aI209700896
aI211071170
aI48902339
aI35926220
aI42545360
aI49459409
aI35696869
aI226570470
aI43102441
aI204615914
aI37499130
aI211333375
aI211857664
aI37892353
aI201944251
aI40710407
aI215068937
aI228077836
aI235122957
aI237449491
aI231518485
aI49394393
aI36090136
aI227520793
aI234795292
aI33370398
aI43692321
aI33108259
aI229912869
aI31633702
aI48705831
aI228307242
aI35172651
aI41464109
aI49295664
aI203927857
aI46706995
aI38809911
aI34976060
aI238045237
aI203043139
aI237553718
aI35729739
aI207368534
aI216805719
aI46346589
aI235090272
aI214752656
aI45232485
aI228929894
aI45068648
aI237089130
aI208843118
aI38908275
aI227586420
aI207434101
aI49066359
aI232010104
aI37171580
aI208941439
aI47657345
aI36860651
aI207106439
aI203043214
aI206614928
aI226647448
aI35041683
aI49793093
aI210252196
aI36942246
aI32420593
aI50442671
aI49099191
aI207390794
aI235319742
aI215560642
aI218968518
aI216183239
aI50213139
aI33862090
aI204157388
aI45232589
aI235287288
aI202420693
aI211268055
aI229758593
aI37368283
aI234025723
aI204517870
aI41431535
aI232567291
aI40186367
aI34517510
aI229618188
aI230568463
aI204452368
aI43168278
aI51196439
aI504346
aI233812507
aI237580828
aI36090403
aI42349092
aI40481326
aI218804785
aI200749618
aI38548022
aI232665655
aI34320956
aI231354942
aI237023811
aI219116805
aI216052295
aI51294792
aI36385355
aI200487505
aI234369618
aI236931171
aI232794121
aI32944725
aI231944791
aI228930138
aI37462198
aI36745827
aI215822948
aI32256614
aI40153873
aI34419305
aI238072427
aI207368812
aI48607855
aI200585842
aI47657587
aI203453204
aI32715389
aI203305599
aI42873622
aI227062412
aI210809487
aI219525776
aI230044311
aI219001496
aI51425945
aI202945182
aI43277765
aI47564912
aI34812578
aI219853475
aI37570673
aI49492653
aI211432113
aI209587
aI214545077
aI201612745
aI51229369
aI34257552
aI230208191
aI35107522
aI217723587
aI32682694
aI212316888
aI37565145
aI214119131
aI214998480
aI40907492
aI236237544
aI39225468
aI51294954
aI203884669
aI233386737
aI235396563
aI210782334
aI32420599
aI212087544
aI201175801
aI233943807
aI38056711
aI205206281
aI45724427
aI210449164
aI215200525
aI222638865
aI41011331
aI43889428
aI215823126
aI39269143
aI37892890
aI208974625
aI40842024
aI46904107
aI32912175
aI43135793
aI46052149
aI210449207
aI200206438
aI47821633
aI144197
aI201765704
aI218739531
aI214009234
aI36609507
aI231551831
aI38810456
aI204682075
aI202126178
aI235123557
aI213889894
aI44282736
aI220279666
aI44282739
aI201732981
aI35697528
aI207521376
aI204321661
aI32715647
aI238072704
aI203404163
aI32715653
aI47395728
aI217396113
aI201307027
aI217592724
aI209630103
aI220541850
aI51098525
aI43201450
aI232436655
aI49198000
aI47199153
aI213332916
aI227674270
aI210645942
aI205252104
aI38548410
aI236565436
aI50869181
aI48291317
aI51196875
aI213890000
aI220869588
aI37401564
aI43561950
aI208712673
aI214578146
aI41912486
aI217723878
aI40383465
aI34485226
aI208483307
aI203633648
aI213890036
aI201176058
aI220607486
aI202683402
aI213627915
aI208745486
aI228209681
aI38712340
aI231132345
aI232469531
aI203759165
aI221721635
aI231644678
aI221426726
aI214217771
aI48378924
aI38155311
aI33240114
aI200613385
aI44938299
aI227456067
aI38122566
aI229356615
aI227882060
aI228176976
aI216249426
aI214873181
aI232698975
aI235866299
aI210547812
aI231289958
aI226145384
aI231683177
aI46576752
aI231552115
aI210547830
aI201700473
aI209007740
aI230438013
aI227226751
aI209630338
aI233911429
aI211110081
aI206681227
aI215413529
aI226374797
aI219591823
aI213671448
aI216282258
aI227783827
aI46937238
aI230175902
aI216544415
aI210225351
aI49427628
aI32814254
aI210097
aI236565693
aI231093441
aI227947721
aI34452689
aI221656276
aI212514008
aI226047193
aI35763422
aI221656287
aI38286560
aI219460833
aI33076453
aI46975185
aI227751144
aI217527533
aI49263859
aI36975860
aI208811259
aI210351360
aI33741467
aI41334022
aI204518663
aI226702600
aI207598859
aI236696845
aI221394191
aI232731921
aI236533011
aI31661614
aI201831702
aI202159385
aI43399060
aI201394395
aI33502504
aI220956893
aI50574640
aI34123364
aI40842547
aI231028020
aI222737718
aI47035703
aI233157944
aI234796345
aI228701498
aI36746555
aI219067709
aI205403454
aI233649474
aI229455172
aI205305164
aI50443599
aI222704980
aI226604374
aI220345694
aI208713059
aI226866532
aI235058540
aI231748973
aI211531118
aI232633711
aI221754736
aI202519922
aI214218099
aI214021493
aI216105289
aI232961403
aI238105995
aI208680333
aI200422799
aI202519952
aI43201945
aI232076703
aI31896992
aI32229166
aI205010341
aI212186542
aI229389743
aI51361200
aI214228552
aI208156083
aI212940214
aI230307266
aI48346564
aI236893637
aI39695815
aI205469128
aI218871244
aI228210128
aI235034241
aI32650713
aI216610266
aI210974171
aI229783004
aI236467677
aI209655647
aI46839272
aI219002345
aI205108714
aI33863147
aI219887084
aI37303791
aI39859697
aI205141491
aI201962996
aI226342389
aI212809211
aI216184316
aI228438954
aI232076801
aI237024780
aI226375181
aI211727891
aI49116078
aI219854359
aI235124250
aI237811227
aI221918752
aI48407338
aI205469236
aI43567369
aI205502008
aI36271028
aI33568324
aI36025927
aI49952332
aI46741071
aI225293727
aI43136599
aI49886809
aI236303290
aI213300831
aI229127780
aI49297000
aI43987900
aI236992107
aI35993198
aI208615023
aI46478965
aI234829430
aI216381050
aI203437694
aI236402303
aI41989760
aI43234945
aI42546818
aI237844099
aI235189898
aI227849870
aI209335951
aI214742673
aI50509463
aI49559197
aI44676766
aI200816294
aI231978665
aI215103151
aI209893040
aI203634357
aI204748470
aI208254647
aI32519865
aI217167546
aI216643262
aI204322499
aI32814789
aI236795596
aI217593550
aI200619727
aI45233872
aI206812882
aI200001827
aI214644439
aI49788637
aI36550366
aI220943396
aI237614819
aI201733861
aI216403204
aI236074727
aI538345
aI227129067
aI50542316
aI214546159
aI44971763
aI219363062
aI203699960
aI214349561
aI205397631
aI204977920
aI45201155
aI231454471
aI214906632
aI211957522
aI50284846
aI41858845
aI202553122
aI227390428
aI232961834
aI203923080
aI229553970
aI214611765
aI230504247
aI207781097
aI201537341
aI40318782
aI214616373
aI230635328
aI45070152
aI226834253
aI230471502
aI214579024
aI203634514
aI49264478
aI234633059
aI229077990
aI50214758
aI40712040
aI211335017
aI37664618
aI38811499
aI203601772
aI205497660
aI211171189
aI205600633
aI216123711
aI49592188
aI230896618
aI237418368
aI207927169
aI208680834
aI204814213
aI210646921
aI233322383
aI236074900
aI232190958
aI48412566
aI232109975
aI218827076
aI207337372
aI33404835
aI238204837
aI440231
aI208779180
aI202291118
aI213465007
aI228062195
aI229455802
aI217298875
aI216020929
aI240203716
aI203241414
aI38811595
aI201734092
aI215172417
aI200390608
aI202520530
aI207599578
aI227424220
aI231519720
aI39804581
aI223262688
aI226179044
aI207534055
aI232175593
aI51132394
aI35305453
aI239417326
aI33798135
aI210470739
aI50804731
aI232798207
aI45995075
aI35511979
aI237484040
aI42252297
aI50804747
aI33404940
aI33372173
aI31832080
aI202262873
aI208091161
aI37238817
aI207665189
aI228407334
aI43501916
aI208997715
aI220706859
aI217069612
aI39073843
aI35064158
aI228800567
aI217757757
aI235649087
aI44506584
aI214612040
aI211531849
aI201977870
aI35174485
aI230471768
aI217397340
aI230701153
aI202651746
aI35436644
aI232700006
aI33831021
aI39958638
aI218675311
aI219002993
aI205207673
aI237428415
aI213923968
aI398744
aI211564677
aI32651403
aI236894349
aI230602897
aI217571011
aI206173209
aI229259416
aI234633379
aI226736298
aI36386988
aI48870429
aI33081715
aI47167668
aI217987262
aI46282944
aI39991489
aI221264066
aI200456388
aI47200457
aI44775626
aI232143051
aI200784078
aI220051663
aI235059411
aI216643801
aI45496541
aI233224416
aI208419043
aI33601764
aI227195109
aI205699304
aI207604092
aI228112618
aI228210923
aI212056304
aI205863154
aI219653698
aI36190457
aI38058239
aI227555589
aI33732871
aI218806539
aI230308112
aI40352023
aI202750234
aI230635803
aI225713882
aI214776094
aI49264928
aI209631522
aI43399462
aI211138857
aI203536684
aI212875569
aI231029042
aI220674357
aI231455035
aI38874179
aI226113863
aI237320525
aI47003982
aI49727886
aI37894488
aI230078810
aI232077663
aI32945211
aI235616614
aI202520939
aI39565676
aI40089965
aI37370224
aI233191793
aI46545272
aI34552185
aI201963899
aI42973567
aI32684425
aI37927311
aI211499410
aI407960
aI216578458
aI214743451
aI217201052
aI211958177
aI216054179
aI213629349
aI41826728
aI50641325
aI212482482
aI39696820
aI34486709
aI235387320
aI232831417
aI46479804
aI215080693
aI46152128
aI228702657
aI204487111
aI207272395
aI230111694
aI34486736
aI32586193
aI38877651
aI228506068
aI45861285
aI42056160
aI234583120
aI227097058
aI227295981
aI202783205
aI218675686
aI216218087
aI226965992
aI238074351
aI39467505
aI222247412
aI45555455
aI233716222
aI208026111
aI36855552
aI204782085
aI205896203
aI235937538
aI235551248
aI216676882
aI50203054
aI215464476
aI227883549
aI203366149
aI200063527
aI234404392
aI229095977
aI43432493
aI45365807
aI220740146
aI201177651
aI213989940
aI39533110
aI231166504
aI205861983
aI238205503
aI209009216
aI35404353
aI235518533
aI230472265
aI230373968
aI215661139
aI33043556
aI36944477
aI221952606
aI207178171
aI212089444
aI44710506
aI210287211
aI216152685
aI210844272
aI232152851
aI228440693
aI47330409
aI209894009
aI38419074
aI231783044
aI32160389
aI35895945
aI42023563
aI49101456
aI227949202
aI216709779
aI309908
aI212646555
aI32651932
aI227981988
aI31777481
aI234240687
aI201931441
aI235289269
aI212175305
aI34388664
aI231946938
aI230079164
aI211499709
aI202816192
aI35142338
aI46467366
aI209402564
aI228604615
aI231946956
aI233381666
aI233880273
aI47102677
aI202914521
aI45431514
aI229018063
aI232569568
aI213170920
aI202226416
aI50772721
aI35079243
aI31668979
aI34913013
aI214088440
aI233945857
aI219429637
aI218086150
aI228637448
aI222906839
aI40909586
aI230328793
aI34650904
aI208598148
aI228965147
aI227916573
aI212351774
aI202662639
aI38943522
aI47832373
aI216873766
aI203242279
aI44055342
aI47266611
aI235191094
aI229718840
aI211270460
aI44026336
aI50148491
aI228384566
aI212319050
aI204520270
aI230734674
aI206486358
aI213793623
aI228440922
aI217004891
aI205863777
aI229325666
aI230439779
aI226507624
aI237124458
aI208419691
aI39859346
aI233388910
aI39861115
aI229948284
aI32951544
aI209042306
aI236075907
aI234339206
aI214547335
aI215075309
aI212614032
aI212792472
aI220347289
aI209337242
aI211860383
aI51297185
aI234437539
aI39599014
aI210305981
aI218413999
aI230329397
aI212148041
aI236926111
aI40090560
aI230323360
aI228506567
aI39336906
aI230931405
aI200915925
aI44284887
aI47627229
aI227884000
aI232242147
aI210123754
aI229653483
aI230898670
aI233847794
aI42974195
aI41480980
aI233094134
aI213498872
aI42712068
aI210484236
aI31603729
aI44710930
aI43105306
aI205168474
aI210648098
aI80933
aI203078700
aI228113455
aI237780018
aI37502003
aI213269558
aI32357433
aI31931454
aI234929215
aI33274944
aI210156610
aI226671683
aI229391432
aI224869451
aI211926092
aI216513614
aI228753380
aI32816212
aI35470427
aI33143900
aI48577630
aI227490913
aI40771430
aI237091944
aI227851372
aI230374509
aI205700210
aI200007529
aI204029051
aI37141628
aI41991295
aI48821441
aI236108940
aI47805634
aI40680590
aI203803160
aI230636690
aI40582292
aI234577774
aI228146327
aI211303578
aI202063003
aI211467426
aI236600489
aI208944298
aI220282032
aI214219953
aI215923891
aI200162486
aI200089460
aI212286652
aI220675261
aI201669822
aI201014468
aI220413126
aI230800583
aI34651336
aI208583884
aI219921613
aI233979094
aI210222295
aI234798296
aI217595098
aI34356444
aI32455902
aI238632160
aI34949670
aI376039
aI42876136
aI32412538
aI235081220
aI45989109
aI222969080
aI220970233
aI48381
aI36041941
aI202587395
aI49341167
aI46447880
aI42188044
aI44572547
aI47037716
aI208813335
aI221723930
aI206028064
aI37469474
aI235538993
aI40443783
aI219921726
aI221134144
aI231259457
aI36453698
aI202292550
aI232076513
aI32128329
aI32685388
aI38157654
aI202718562
aI114022
aI221973052
aI34717041
aI39107955
aI507257
aI36670015
aI229326204
aI236240253
aI226822720
aI204946824
aI219790729
aI41991562
aI40746382
aI230014351
aI220020113
aI50904469
aI221134230
aI210438724
aI236436891
aI33176990
aI237813152
aI228670882
aI201629595
aI206323108
aI229260710
aI38761714
aI43761070
aI206978484
aI227720631
aI231947707
aI33832381
aI217497027
aI264780
aI48119243
aI204324300
aI205962707
aI208584148
aI235945429
aI34782679
aI232472025
aI230964698
aI216972763
aI47037916
aI201375198
aI38485471
aI232308192
aI234241507
aI216120806
aI213892585
aI230301607
aI201932268
aI237420014
aI44613103
aI38714864
aI214416891
aI44350972
aI211186944
aI376322
aI203636227
aI47169031
aI50675208
aI227917321
aI201768459
aI218971660
aI34258445
aI32947730
aI204258839
aI38190616
aI231849497
aI209141279
aI228572705
aI227786274
aI205798954
aI238239278
aI233324080
aI234274357
aI203734588
aI214580797
aI211074628
aI45956679
aI34618960
aI35044946
aI200654421
aI228996367
aI211631710
aI217372098
aI219004524
aI220741230
aI209567343
aI223821427
aI44332056
aI230427242
aI32489091
aI211467908
aI212819905
aI237289096
aI222609034
aI212549259
aI34684556
aI37789634
aI211795599
aI230833819
aI237026975
aI38059682
aI203748635
aI218021543
aI39927465
aI207175338
aI219564658
aI45530798
aI216645295
aI202325694
aI201473727
aI210222784
aI48742082
aI41238211
aI231194318
aI228671186
aI228343507
aI208355028
aI36683480
aI212418272
aI33873873
aI49495789
aI42452043
aI226901747
aI245492
aI41828089
aI205995770
aI205340412
aI48414462
aI32816896
aI221167364
aI228522455
aI43138827
aI217988876
aI40124173
aI226443027
aI202227476
aI231030551
aI45268760
aI200097561
aI204387631
aI43630365
aI221560608
aI215138081
aI231612379
aI227647452
aI34717483
aI50020142
aI35763507
aI237190965
aI218939199
aI217571296
aI211238725
aI231292743
aI47595342
aI220774224
aI236240721
aI48545625
aI212516698
aI221645455
aI44201274
aI43106152
aI231948137
aI211730285
aI214433787
aI34389873
aI234798963
aI202268649
aI228179832
aI237387641
aI50216829
aI204652415
aI205897601
aI200753026
aI33046407
aI216612745
aI230571914
aI33800077
aI229752721
aI44875667
aI232472471
aI226243908
aI34652058
aI229621666
aI50978801
aI217005992
aI230080426
aI376750
aI202063796
aI230080439
aI226705336
aI50184122
aI228245442
aI37208005
aI219627462
aI236077000
aI221986761
aI36749269
aI226967511
aI234078173
aI236732382
aI215564256
aI37830626
aI217497572
aI237387751
aI35373037
aI202194928
aI210943985
aI207634428
aI236470271
aI235880448
aI221528067
aI235552776
aI37535757
aI33603603
aI236568600
aI38125597
aI231718943
aI201738928
aI41861170
aI218677299
aI213696567
aI214586552
aI229720126
aI208977984
aI217333838
aI46284879
aI211271761
aI42975315
aI234995797
aI202752087
aI220315739
aI50249820
aI217333860
aI230028646
aI42549350
aI207732841
aI228638826
aI213401707
aI33276014
aI205701231
aI35119124
aI41631867
aI201310332
aI231587965
aI31801479
aI38813833
aI210583690
aI209207439
aI32129173
aI201244825
aI33603738
aI210813085
aI208093342
aI43677040
aI231489698
aI236077219
aI35143845
aI40747181
aI222609584
aI215367857
aI233062584
aI216809658
aI218546364
aI230441152
aI214483138
aI31965381
aI50577609
aI237551821
aI229949647
aI210682065
aI215302363
aI235913436
aI227819742
aI220217568
aI203440359
aI32588011
aI33898732
aI200196333
aI49901205
aI215007476
aI37404920
aI221724921
aI49398013
aI232538371
aI218218758
aI220676360
aI180494
aI33341711
aI215952654
aI226607383
aI201769241
aI231489818
aI203014429
aI235946271
aI200687907
aI233881893
aI229032233
aI201376042
aI218120491
aI50938158
aI236831025
aI213302
aI43663672
aI235487549
aI48316735
aI208978240
aI201081156
aI42788131
aI210059595
aI50086220
aI228835661
aI231555411
aI217825620
aI208781656
aI229622113
aI225755493
aI50643302
aI208191849
aI201703788
aI213107057
aI231260530
aI44581239
aI37142905
aI31932794
aI48734272
aI50741636
aI38125958
aI48742792
aI32457098
aI219040494
aI44235110
aI218874265
aI38342870
aI201834921
aI232735156
aI47923640
aI228180409
aI34226619
aI41173439
aI229733792
aI37142978
aI200032707
aI227787209
aI48906699
aI46252492
aI217301467
aI38846940
aI229935866
aI213828063
aI231596112
aI231588326
aI213697000
aI228934121
aI229392874
aI220643829
aI228114934
aI203964928
aI230703626
aI205046286
aI235618832
aI218612242
aI36422169
aI231621150
aI47202851
aI235323941
aI234177062
aI45498919
aI475691
aI216646188
aI237519411
aI215171637
aI228246070
aI40780345
aI211927614
aI237093445
aI215990855
aI216973901
aI206422609
aI224182866
aI41730650
aI231359071
aI232473184
aI227132001
aI35734117
aI217596520
aI49881192
aI210207866
aI40067177
aI220185211
aI205308545
aI228704900
aI213753964
aI204554890
aI50479757
aI36029073
aI213271187
aI235061911
aI204489369
aI231817884
aI211731101
aI229327522
aI215794339
aI41992871
aI215138984
aI236470953
aI37208747
aI50578092
aI217072301
aI218514097
aI208683698
aI51421299
aI50217656
aI32752315
aI44909246
aI33276610
aI215244525
aI211731140
aI48874182
aI208945863
aI227653068
aI215990992
aI36029137
aI234406614
aI48579291
aI44221150
aI232637151
aI237581776
aI215597799
aI202654445
aI213467891
aI212648692
aI38781686
aI200196855
aI210518778
aI234210043
aI235062013
aI222118654
aI32989312
aI211403526
aI207373065
aI212419342
aI214385423
aI212779795
aI37765909
aI37274390
aI50414360
aI39633689
aI34947869
aI208388900
aI37339942
aI237224744
aI205243182
aI45794096
aI227722044
aI214647613
aI50479934
aI223101760
aI222020422
aI218973001
aI51233611
aI230146893
aI47924048
aI36946770
aI203408214
aI37831512
aI51397466
aI237213343
aI41894750
aI232506211
aI34947941
aI43991914
aI200852335
aI39371633
aI42189689
aI230474622
aI219267967
aI232469995
aI212796036
aI50873238
aI211995460
aI35472301
aI48874415
aI207307698
aI230376371
aI227361719
aI220644280
aI212845505
aI233259974
aI236995528
aI227492810
aI237093837
aI225297358
aI48546769
aI38519766
aI32588761
aI49955813
aI40780783
aI237290483
aI214647796
aI230638582
aI40977400
aI218776573
aI233884501
aI235095042
aI226812075
aI233063435
aI219595792
aI45564962
aI39601194
aI229164075
aI214287407
aI228246577
aI200229938
aI32326712
aI204489787
aI216578847
aI236143682
aI230409285
aI230984545
aI42583112
aI37831755
aI32916556
aI228934741
aI212354138
aI39765083
aI202001493
aI39076959
aI233834317
aI221856874
aI222020722
aI221558291
aI43762804
aI46974073
aI46941319
aI208028808
aI217302155
aI205309074
aI35210388
aI221627541
aI38585495
aI237061273
aI234734746
aI229291546
aI33899679
aI201835682
aI215925923
aI218194118
aI31966374
aI220447918
aI227624111
aI205221421
aI233981118
aI37405890
aI44680390
aI41645601
aI231032011
aI43622605
aI228246740
aI217718990
aI237126873
aI41010394
aI200623325
aI226378976
aI227951841
aI231949540
aI46154988
aI228607213
aI34751727
aI237028592
aI215565558
aI50054391
aI227951864
aI207111418
aI214582523
aI230769917
aI33047812
aI49693957
aI212649223
aI235619592
aI226468055
aI221791500
aI231294223
aI204195092
aI201016599
aI231425304
aI207275291
aI231720220
aI212682016
aI35538214
aI40387880
aI202884394
aI36717867
aI40355125
aI222020920
aI41993537
aI39437647
aI44909904
aI36947281
aI36095314
aI216483155
aI215565652
aI202982751
aI41010529
aI215919957
aI227460455
aI209929580
aI230573422
aI227631337
aI203048312
aI213894522
aI210322812
aI47105409
aI32753027
aI238175625
aI43632010
aI49333645
aI216778128
aI34391453
aI40388001
aI201409954
aI44764059
aI33277352
aI228181421
aI239355314
aI35341747
aI35636661
aI226969015
aI31606201
aI218453564
aI230507970
aI39306695
aI41010632
aI41530956
aI228574667
aI212092366
aI201639378
aI228941507
aI211109335
aI234898906
aI216954447
aI218636538
aI227919326
aI229688800
aI208717287
aI47614887
aI200984045
aI205309428
aI201474491
aI209679958
aI34899301
aI219170318
aI234997264
aI210978326
aI210290201
aI43271709
aI229590564
aI212427014
aI35112489
aI50382381
aI220579375
aI234178101
aI210454071
aI234341946
aI227722813
aI36423232
aI202950213
aI228804170
aI227690059
aI38368867
aI226575957
aI47400535
aI211502680
aI49170010
aI41961054
aI215500385
aI206784100
aI232769125
aI223168102
aI51145140
aI208782958
aI39569007
aI201082480
aI45266536
aI40191603
aI50677371
aI220722794
aI47007360
aI203900548
aI35473029
aI211994247
aI210454156
aI234833551
aI38880913
aI32589459
aI34621080
aI32360089
aI201672348
aI230082205
aI229295777
aI31901346
aI204818083
aI214222500
aI42550950
aI237946538
aI234048455
aI217990832
aI230540978
aI212059831
aI216976330
aI211039861
aI50154443
aI46122692
aI237487813
aI39831238
aI204588743
aI32229067
aI42911441
aI38880979
aI235495717
aI232244962
aI46450406
aI236472043
aI49923820
aI228607725
aI216024816
aI219439956
aI235390714
aI44910331
aI48809726
aI37930752
aI235292420
aI218973961
aI200230666
aI234632835
aI227559188
aI221792021
aI202327832
aI228017945
aI201279258
aI233424670
aI33474337
aI32556835
aI35702564
aI48908073
aI50382636
aI202622765
aI38291246
aI209405748
aI226608952
aI229295930
aI47789706
aI230803262
aI219924287
aI44844868
aI205342535
aI208783184
aI234112849
aI37439314
aI209204878
aI36816726
aI34256527
aI44844896
aI212372454
aI51332966
aI42256231
aI229164908
aI217565051
aI50022271
aI202065792
aI208320812
aI36456324
aI201181064
aI205703051
aI221235085
aI209766289
aI219531154
aI49792915
aI223135637
aI219936409
aI49203097
aI201279386
aI217663389
aI215304100
aI211011493
aI226281393
aI200853429
aI46385081
aI226281402
aI50099871
aI221857730
aI43239363
aI203016133
aI229428215
aI201115599
aI36358102
aI50350042
aI33966044
aI227756001
aI220186597
aI238307303
aI202819560
aI220055530
aI232605677
aI215009265
aI209242101
aI214857385
aI39766009
aI201771003
aI216188928
aI209587201
aI216188942
aI232507410
aI211798036
aI36915727
aI232638489
aI201902107
aI217401376
aI234375202
aI33507363
aI211109924
aI208369329
aI49727529
aI44550186
aI47138867
aI217204789
aI39831606
aI209193994
aI230967358
aI42289218
aI233031749
aI212617286
aI38914121
aI33769546
aI215097698
aI36784207
aI210323537
aI237160530
aI51175779
aI210913366
aI43632728
aI237024620
aI233719901
aI38422627
aI210487397
aI38848615
aI230312043
aI238012528
aI202957160
aI33867890
aI203704440
aI220448889
aI210454654
aI220252291
aI217139338
aI206227595
aI48777359
aI35145872
aI50677907
aI42977433
aI37238469
aI50481314
aI50383011
aI204818601
aI214452397
aI236341428
aI313528
aI231262399
aI213633217
aI32098498
aI37406919
aI40832034
aI50159992
aI209045718
aI230934743
aI49455482
aI201803998
aI231065825
aI41076971
aI228378864
aI233425138
aI223529203
aI214288628
aI217925877
aI204916984
aI236505338
aI40749308
aI218123306
aI50546943
aI33317249
aI47433993
aI218843403
aI228838445
aI35244305
aI203868434
aI47499539
aI51431704
aI50153757
aI227839024
aI43043107
aI203999531
aI200755502
aI209172190
aI207866169
aI203770172
aI227506700
aI234932543
aI46254404
aI203344201
aI205425720
aI201443667
aI236046676
aI200395093
aI37570903
aI50547033
aI43534684
aI208605055
aI43403620
aI47139176
aI220481898
aI39438702
aI44648819
aI50415991
aI237848955
aI42551676
aI219784775
aI213502350
aI210258322
aI48875924
aI227690901
aI230508950
aI219564440
aI235386607
aI217934219
aI205932958
aI230312351
aI36882851
aI39143844
aI235457606
aI33507750
aI203180456
aI43403692
aI235687997
aI231262638
aI233884080
aI216451374
aI215894455
aI37898681
aI207430047
aI234179005
aI210553279
aI232311883
aI200788421
aI215097761
aI239880650
aI47139286
aI227112697
aI34055890
aI44648926
aI35430821
aI205081056
aI237369083
aI541541
aI33409511
aI215173611
aI231721453
aI219881889
aI49695218
aI226183668
aI228968949
aI236471789
aI235260411
aI229755388
aI36882942
aI221858901
aI200067586
aI49891848
aI44386828
aI234539533
aI213568015
aI202094339
aI211372568
aI216222234
aI36915741
aI215861790
aI39406118
aI34294315
aI211962413
aI205867569
aI231164467
aI208489012
aI209325208
aI44878396
aI230672958
aI218974783
aI214583874
aI46713419
aI210668643
aI36489815
aI226609756
aI214944350
aI47942757
aI31672930
aI41601635
aI237849191
aI213568106
aI40684139
aI216550001
aI43862642
aI203814675
aI230279800
aI34065018
aI47794812
aI39176834
aI47827588
aI34523782
aI51071624
aI226937481
aI35834507
aI38816397
aI46647951
aI39602832
aI218352273
aI211241623
aI220154528
aI208784034
aI38029993
aI215239340
aI42879664
aI218221233
aI201181874
aI215009972
aI212137759
aI45238972
aI210815689
aI201706189
aI33901266
aI229657305
aI214098384
aI32623341
aI235064046
aI207145712
aI46287604
aI49433726
aI207670006
aI208915193
aI234806375
aI38849281
aI216451851
aI215730956
aI209996558
aI49105684
aI202459936
aI239094564
aI45304633
aI40487738
aI50907966
aI205245247
aI221694786
aI230214468
aI214611767
aI237914956
aI204753741
aI211897170
aI209620110
aI33409878
aI47074137
aI37604187
aI230083426
aI44911459
aI32459621
aI42912618
aI206424939
aI233491310
aI47762287
aI204557171
aI229854068
aI214584181
aI204427692
aI232770435
aI201739147
aI238013327
aI41143185
aI227363732
aI239242393
aI205671325
aI210946974
aI201051044
aI202034088
aI209275821
aI210029488
aI226282417
aI216556019
aI49957815
aI202525624
aI47500218
aI32033726
aI227036098
aI51432388
aI37473221
aI210095046
aI235654305
aI38259657
aI214584266
aI200068043
aI235260876
aI209308623
aI47369172
aI217926613
aI206195673
aI237325275
aI228903903
aI209811280
aI226970611
aI37407732
aI44502185
aI216550570
aI209183232
aI200952843
aI50547724
aI234015757
aI203095962
aI212061201
aI32230421
aI216550424
aI200166427
aI36621345
aI214944802
aI209636387
aI36588580
aI42355751
aI220253226
aI210324525
aI205409328
aI44256310
aI212356151
aI226249789
aI49761345
aI213109830
aI227232840
aI230771786
aI203017291
aI222645325
aI38685775
aI220744789
aI33147991
aI227527771
aI214617181
aI32590942
aI227030885
aI47008869
aI233868476
aI228947816
aI230509683
aI47369333
aI200952956
aI228838526
aI46713988
aI42585223
aI221400205
aI230182030
aI219107209
aI205311126
aI231623835
aI232541340
aI236932253
aI36490401
aI220974244
aI227041820
aI204491946
aI39111865
aI215534779
aI50384065
aI214518978
aI221400266
aI202329291
aI215272659
aI44485848
aI202656986
aI231224211
aI49859805
aI221793502
aI228183267
aI200035556
aI212094182
aI234343655
aI34524393
aI31902954
aI211045613
aI45305079
aI213961976
aI211275004
aI207282730
aI214748417
aI228216066
aI219860227
aI49564932
aI47598864
aI232574225
aI39898386
aI40914198
aI216124697
aI41263663
aI49892636
aI281888
aI234245412
aI201772332
aI214977843
aI205540663
aI213404984
aI42126651
aI223825216
aI210554183
aI214388040
aI234048739
aI208162132
aI46845270
aI216681821
aI232901985
aI201968994
aI32645089
aI44846439
aI235654506
aI201116903
aI47795565
aI49575827
aI228117880
aI203929492
aI34852220
aI203345277
aI47009155
aI229657990
aI221400457
aI233196940
aI234933485
aI226545045
aI232115607
aI35638683
aI48614812
aI216157598
aI203869600
aI38948257
aI210062757
aI229297574
aI41110951
aI207572392
aI204754347
aI200658348
aI32263604
aI220548534
aI200166840
aI214912442
aI200166843
aI215109053
aI231869686
aI40455627
aI221236685
aI210783694
aI45960657
aI47861202
aI211865045
aI234868183
aI207572445
aI39407072
aI40652261
aI201762617
aI212094447
aI47926770
aI223006197
aI39407097
aI231984634
aI39341566
aI213437951
aI204623360
aI227462657
aI202165764
aI34955862
aI236506632
aI204033546
aI225693197
aI205409811
aI231427605
aI35933718
aI202296857
aI33759139
aI206917153
aI209067735
aI200429111
aI202001977
aI38030910
aI38686276
aI227921477
aI212553289
aI230837834
aI229068366
aI43896402
aI205391719
aI227478798
aI233950806
aI230772315
aI231657054
aI39145055
aI216583779
aI232115813
aI49729133
aI36064889
aI32755328
aI206818945
aI211373698
aI215142022
aI203017874
aI213536403
aI39800471
aI230444696
aI219467419
aI217353498
aI38653600
aI217927333
aI240176814
aI39702194
aI230510259
aI35442356
aI223989431
aI204000953
aI234999486
aI230772415
aI46190274
aI40947395
aI39112392
aI222744272
aI213864146
aI205803220
aI42416078
aI234868444
aI49139421
aI232017632
aI208719586
aI233492196
aI49041132
aI200658674
aI231526131
aI50848382
aI210756811
aI221007608
aI203378425
aI47380437
aI215568130
aI231657219
aI42006999
aI228413193
aI47238923
aI34590477
aI213110543
aI219041555
aI216715028
aI228839192
aI200527643
aI36065052
aI201871139
aI32329509
aI229723945
aI35311406
aI44420911
aI213372722
aI38588212
aI209964853
aI229363516
aI236987018
aI225726273
aI34950979
aI219041607
aI204197704
aI44060491
aI232410958
aI40816464
aI214814008
aI203018069
aI210882390
aI200396634
aI42094429
aI47075167
aI218041661
aI209932148
aI221597558
aI212389753
aI230051706
aI211079036
aI31707014
aI232705928
aI208228233
aI200298378
aI235065230
aI226447247
aI47271824
aI221979288
aI221728658
aI208195475
aI228839317
aI32853911
aI231165850
aI233983900
aI50089886
aI214683551
aI210784162
aI235184795
aI205917655
aI231985068
aI223006638
aI207507385
aI39723679
aI210423741
aI233164738
aI232214470
aI232083399
aI46223309
aI234082262
aI37736409
aI231198682
aI204492767
aI44355552
aI43175905
aI221269987
aI43274227
aI205049845
aI211275770
aI207222783
aI33345532
aI217993213
aI31803850
aI203444226
aI227790855
aI46781793
aI228176712
aI38916116
aI208478541
aI205180951
aI233951259
aI219751431
aI212208987
aI209997862
aI208850986
aI238014510
aI218878005
aI38981690
aI48765469
aI237424701
aI222646341
aI201412678
aI207370252
aI232017995
aI35016781
aI43601999
aI50548818
aI218320981
aI201478235
aI36277605
aI232607840
aI33706082
aI237850723
aI203804777
aI47763562
aI200102008
aI227922042
aI200986753
aI38916226
aI32526468
aI479369
aI214594329
aI43667597
aI37064045
aI229494931
aI51073173
aI233754779
aI39702690
aI233722021
aI40521900
aI212979891
aI203280566
aI223432887
aI227872116
aI43184343
aI47544352
aI226971842
aI32744139
aI37081284
aI51269829
aI151750
aI215732431
aI212259024
aI202460536
aI209440989
aI223006942
aI206426335
aI37900518
aI234868970
aI231493871
aI212580393
aI221782740
aI208654587
aI218648829
aI208687360
aI233001219
aI37664812
aI49467670
aI40761391
aI209768739
aI41734439
aI38293800
aI219516295
aI212259116
aI45044013
aI230707502
aI211177777
aI36884789
aI214028599
aI216561716
aI47436092
aI207468597
aI151872
aI31985035
aI207245636
aI218124615
aI33699895
aI230871375
aI47599954
aI31609180
aI201085277
aI215437662
aI37146978
aI235164003
aI205967716
aI203280741
aI43372907
aI201395602
aI45437297
aI200659314
aI234869107
aI230707575
aI219936831
aI230347139
aI46780813
aI235196816
aI210620818
aI37409171
aI41898389
aI47894934
aI210424216
aI39532612
aI216715675
aI36229538
aI51335596
aI234119922
aI235360687
aI215317758
aI283058
aI212116211
aI213437854
aI38478580
aI232575419
aI207638973
aI348612
aI38523333
aI209375686
aI236228002
aI234869198
aI203608537
aI201478626
aI39703012
aI40456680
aI219795947
aI217184338
aI214323695
aI215011826
aI32330227
aI230347254
aI232116727
aI238899707
aI47403517
aI35017214
aI35344895
aI32920064
aI33018371
aI236016133
aI200790534
aI237785607
aI31740427
aI228610579
aI221860373
aI234803736
aI37916079
aI231100960
aI38687266
aI221860387
aI201249316
aI238146086
aI228020776
aI230707754
aI230249007
aI202330676
aI233984565
aI213832251
aI41996861
aI209703490
aI211309126
aI204034632
aI207147596
aI231985743
aI219599458
aI31740515
aI215077477
aI47764072
aI229233260
aI32887407
aI45470320
aI226218612
aI38982265
aI232379006
aI230675072
aI51434118
aI235000455
aI232968842
aI32920207
aI39539348
aI230380183
aI220025498
aI250529
aI213242530
aI34525859
aI238050370
aI218616485
aI40882854
aI219730600
aI205050540
aI33051310
aI232477360
aI35050161
aI33809182
aI47567543
aI217567936
aI232411842
aI43832006
aI205640393
aI35672779
aI43087992
aI220713682
aI218616533
aI33903318
aI228971227
aI210490078
aI42897394
aI216978153
aI239620844
aI232116977
aI228840182
aI226775799
aI36086570
aI217993983
aI215196459
aI217993989
aI228948097
aI41964296
aI233788169
aI207999755
aI228178050
aI226349843
aI230249244
aI227169056
aI43209513
aI36655915
aI40457012
aI210391861
aI210981687
aI232706872
aI35720671
aI185151
aI215862752
aI202691394
aI234935109
aI51303238
aI33018696
aI229626699
aI232117075
aI216918460
aI227988316
aI235000672
aI212620130
aI240407398
aI215372647
aI230708073
aI207016813
aI45863790
aI228905840
aI235780243
aI45536117
aI218977147
aI228479881
aI209933195
aI215962509
aI35148693
aI35083158
aI229528471
aI210576196
aI39637916
aI232412063
aI233868077
aI237228966
aI201348008
aI233755561
aI49632170
aI226841518
aI48822429
aI208196529
aI50171380
aI232117182
aI215143361
aI229921731
aI215223798
aI204919756
aI202986445
aI37442510
aI234935247
aI226776016
aI230446035
aI217502680
aI217184420
aI49009632
aI218944483
aI202003430
aI42816487
aI216486888
aI37573612
aI48681966
aI40457199
aI31937528
aI213865465
aI41078272
aI232150018
aI41833481
aI48550923
aI185357
aI47928334
aI203379730
aI39277587
aI205476889
aI37315183
aI213373983
aI237372791
aI223990820
aI218846246
aI47764520
aI219567145
aI43242546
aI207279160
aI49402937
aI219108410
aI213996606
aI201708607
aI202593344
aI49370179
aI220288068
aI221172819
aI229659733
aI227398742
aI232576089
aI235164771
aI212948070
aI230249576
aI217961578
aI43570286
aI41702512
aI33510513
aI216585330
aI205344275
aI227955829
aI229463160
aI227899583
aI39638144
aI33181206
aI202232972
aI34154183
aI50189455
aI33969297
aI201839766
aI215897240
aI231625882
aI201970847
aI119969
aI32429222
aI43242664
aI226514091
aI33838257
aI44618930
aI37115059
aI36066486
aI49632440
aI215109378
aI32962762
aI234017986
aI227038405
aI219731143
aI35574987
aI207836367
aI225694934
aI42226906
aI236470280
aI230380770
aI207082724
aI227628264
aI36787433
aI48616684
aI40522989
aI513263
aI40948976
aI232263208
aI216949630
aI214422775
aI223859961
aI49992955
aI231331070
aI237360383
aI33182978
aI45872924
aI234575116
aI50550031
aI37082388
aI231560473
aI228250906
aI201756207
aI223204638
aI236279073
aI203281699
aI235296036
aI210457897
aI40949036
aI31741232
aI45372724
aI232215867
aI47928637
aI39507262
aI225753312
aI233690435
aI210818376
aI49403213
aI235590993
aI226547026
aI232969555
aI41833819
aI202528094
aI233264479
aI47080336
aI231855459
aI46290277
aI39048553
aI201807212
aI231855469
aI238376306
aI33871219
aI38491514
aI219010432
aI45884310
aI33478022
aI42489225
aI200594828
aI232248718
aI35575186
aI204035479
aI231804484
aI44881306
aI38917532
aI235328935
aI44946858
aI230741421
aI213086431
aI229860253
aI229627316
aI206624181
aI236180923
aI35902908
aI230313546
aI40392127
aI33084864
aI47459631
aI208721346
aI228447684
aI228087237
aI37836230
aI231167437
aI204297681
aI35083730
aI201807322
aI230217181
aI200483749
aI201479649
aI227268071
aI233756136
aI43767276
aI219960813
aI226315859
aI31610356
aI44979703
aI200300024
aI212602452
aI219502079
aI217366937
aI201741828
aI32757259
aI49763853
aI229856782
aI203858861
aI226874898
aI216618526
aI235853345
aI38327845
aI212977322
aI47339048
aI237123847
aI42405469
aI36787763
aI211244604
aI229299774
aI230872643
aI210949701
aI220026438
aI229139383
aI35083858
aI231822933
aI34690646
aI236574295
aI37934686
aI232380004
aI209737321
aI220485227
aI50910830
aI230479471
aI230250097
aI32495220
aI227708522
aI39278209
aI236738178
aI227752215
aI233658000
aI45087000
aI206526109
aI35018398
aI232707746
aI229529252
aI34002602
aI38557358
aI203929885
aI31970993
aI227825333
aI237590198
aI205510328
aI32233150
aI203478721
aI51369668
aI45536967
aI206821068
aI39409357
aI38557391
aI47503060
aI48879317
aI39868124
aI38622944
aI39461840
aI35026016
aI237524719
aI234084080
aI203984510
aI45316393
aI201643774
aI34166528
aI48092930
aI33707780
aI229172182
aI217896713
aI222779146
aI214980364
aI205641486
aI41473808
aI213210899
aI219436820
aI203806492
aI236246815
aI236377890
aI44947237
aI218027814
aI36493095
aI210491176
aI33150765
aI31610672
aI230512433
aI236181304
aI212771807
aI237123893
aI31741765
aI218945352
aI48322377
aI232544078
aI230807375
aI32560977
aI209770324
aI214751063
aI211867482
aI222713700
aI216160102
aI204115602
aI211048302
aI43243391
aI46225282
aI212031366
aI37189953
aI48584585
aI214488975
aI229103504
aI210032529
aI46201155
aI208787352
aI37083033
aI205051805
aI34264991
aI214095777
aI200136613
aI47896487
aI48256938
aI233825267
aI48551863
aI37312445
aI236306180
aI226777025
aI45209550
aI232904655
aI227380899
aI47405012
aI220518360
aI207214557
aI37443550
aI200079696
aI212340390
aI222975975
aI39442411
aI205215730
aI237885427
aI233658356
aI46987604
aI42293242
aI38918144
aI41968886
aI31938569
aI204077399
aI45275148
aI51369998
aI43472915
aI43178004
aI214355630
aI224876567
aI229194074
aI201971743
aI234182689
aI217110562
aI209770531
aI219011115
aI201873453
aI210425903
aI47568946
aI207922185
aI212490300
aI37541950
aI232446015
aI215210048
aI40327233
aI49600579
aI229955657
aI221894739
aI230152280
aI231987289
aI211980048
aI200792165
aI49371241
aI228120683
aI47831149
aI218585200
aI33183864
aI34271014
aI201808002
aI233322859
aI39511062
aI232282248
aI232183952
aI49731729
aI208080351
aI203806877
aI230774946
aI237675548
aI31807659
aI231823534
aI33544371
aI211933373
aI216455358
aI216062145
aI233167042
aI215603398
aI209869002
aI40458451
aI208853208
aI36460764
aI33708253
aI229365985
aI227694818
aI46455013
aI212359398
aI50321643
aI230283503
aI227105020
aI39737597
aI39508222
aI35674370
aI210819338
aI230119691
aI38852883
aI38839342
aI231397659
aI212654364
aI226842912
aI215177507
aI206657833
aI210262317
aI233167150
aI216848688
aI39344439
aI41408825
aI200628538
aI202247903
aI227137852
aI211441981
aI33446207
aI33446211
aI234608973
aI236214606
aI231978288
aI211474768
aI230695992
aI234576212
aI37574997
aI227924312
aI37935454
aI234871137
aI226285925
aI201283943
aI213866861
aI42588528
aI212752753
aI46061938
aI32780492
aI235493751
aI210655612
aI38558078
aI226482559
aI48322945
aI213047682
aI230218117
aI236935558
aI219175305
aI42981773
aI225696142
aI36940972
aI49306018
aI41998757
aI208263590
aI36493747
aI210950581
aI40032703
aI35609024
aI210950598
aI45603272
aI42752457
aI201505187
aI206690772
aI231037400
aI213932507
aI238442975
aI233462242
aI33479145
aI233757162
aI210622956
aI47012334
aI206330351
aI207575539
aI206526964
aI210819573
aI48126459
aI231332349
aI205642245
aI219654
aI48060935
aI214358541
aI211081743
aI210950673
aI209541664
aI42162723
aI38468019
aI44882486
aI238115383
aI186936
aI210426425
aI236476987
aI207411772
aI40065608
aI34363983
aI228096440
aI235821655
aI42588761
aI210360929
aI383592
aI36952681
aI230808180
aI231889531
aI39410302
aI227367553
aI44489350
aI223894152
aI35838601
aI34593425
aI214882970
aI202824347
aI211638942
aI237165215
aI217701024
aI42228387
aI36068009
aI232839851
aI46815920
aI207903411
aI50158260
aI210295483
aI228416190
aI230382275
aI234819361
aI44027683
aI45365710
aI47864534
aI219536090
aI234117851
aI236673756
aI232512222
aI220486368
aI212777424
aI231267042
aI213244645
aI210787048
aI40524523
aI50649837
aI231498877
aI50701438
aI210230006
aI201379625
aI46258937
aI216718075
aI50223872
aI222583557
aI37903110
aI234969865
aI200661770
aI206240215
aI37968655
aI216914705
aI234806034
aI43178773
aI318231
aI43277082
aI32070427
aI212556574
aI41442085
aI49240870
aI35107887
aI48192298
aI228023085
aI35904302
aI34429744
aI44915509
aI218848054
aI220191543
aI47504190
aI228809537
aI37772099
aI228973380
aI238345030
aI207903559
aI218192714
aI228121421
aI229694288
aI43604817
aI208853845
aI37359981
aI202005338
aI37346147
aI212392805
aI47864682
aI228383596
aI51207022
aI215178098
aI35085172
aI220420981
aI221698935
aI232727700
aI231758715
aI234576764
aI48126847
aI33643392
aI230480769
aI209607554
aI213244803
aI233921422
aI229825428
aI32988055
aI212294557
aI232479648
aI232283042
aI217701285
aI216030120
aI234655559
aI33449117
aI206232498
aI34855860
aI233757623
aI32750068
aI229727163
aI45603772
aI214850497
aI42589130
aI210721740
aI212589520
aI239623124
aI231431129
aI221913726
aI51403743
aI220388322
aI219569123
aI237591526
aI48527868
aI232840170
aI223861747
aI235592698
aI229199701
aI209705984
aI209509378
aI206232580
aI206756872
aI228875273
aI227662860
aI236608526
aI219569168
aI208493593
aI231693339
aI214645253
aI226122785
aI36939903
aI47471661
aI39672883
aI202431542
aI45538361
aI216166747
aI229006396
aI40393794
aI39410755
aI235035717
aI211835974
aI231824455
aI239197257
aI38591567
aI231201877
aI32758870
aI208985176
aI227040347
aI210000989
aI231955550
aI43637859
aI36002919
aI212163688
aI233462889
aI37543300
aI43637867
aI214752374
aI36363384
aI468159
aI43629077
aI239623296
aI208559237
aI231810241
aI37379209
aI221895826
aI215309466
aI45472927
aI207248544
aI227892389
aI37182635
aI223894700
aI37575853
aI227204270
aI232152258
aI46097611
aI36560070
aI36887751
aI231791819
aI233037005
aI213376207
aI50289878
aI285911
aI38722776
aI228383976
aI222289129
aI39509232
aI209968376
aI232611065
aI205446395
aI37870845
aI211049730
aI229432583
aI208723225
aI32333083
aI232054046
aI35118371
aI45669668
aI234151205
aI36265257
aI50650413
aI230972718
aI235035957
aI220519735
aI234282296
aI202759481
aI235101498
aI203545917
aI216259905
aI37215554
aI238116171
aI236313934
aI39673171
aI46685524
aI217800026
aI38919515
aI40951132
aI217144678
aI31939943
aI32529769
aI33709422
aI204987770
aI214031743
aI201317762
aI233397636
aI219241872
aI43343256
aI208100761
aI232152488
aI51174828
aI210034094
aI50388400
aI234413496
aI213127071
aI37903811
aI213083382
aI286150
aI33906120
aI206233033
aI201186762
aI46063054
aI202268115
aI217538007
aI230612445
aI212655582
aI49503711
aI201448928
aI237690341
aI229957095
aI226844142
aI50215507
aI41442805
aI33644025
aI231431675
aI238247420
aI46292483
aI234053125
aI215145994
aI201514509
aI200039950
aI35413521
aI204844106
aI207845977
aI209018392
aI235396639
aI233954854
aI237395498
aI50355756
aI226254383
aI230907440
aI217064712
aI216129081
aI235494972
aI47865407
aI210460227
aI39575112
aI32857676
aI237461069
aI200760911
aI209804884
aI231755772
aI206298717
aI235491259
aI217472622
aI218127985
aI231431796
aI208854645
aI204955265
aI203447938
aI37108331
aI234643079
aI240246414
aI235495056
aI231202452
aI211967638
aI33054359
aI417432
aI214032025
aI228646555
aI215408291
aI47177381
aI230645415
aI35839657
aI226057899
aI319158
aI212197048
aI38526649
aI38198975
aI204005056
aI44883352
aI202071747
aI37780086
aI33414858
aI47472336
aI201580243
aI227663572
aI231988967
aI40434816
aI201055980
aI207904493
aI200236787
aI42400382
aI37964498
aI228024057
aI218521344
aI50126593
aI228646659
aI216194823
aI33775370
aI33808142
aI229931651
aI188183
aI223001220
aI231202586
aI223338267
aI230581725
aI213802786
aI43409187
aI227139365
aI238837543
aI37379882
aI215342902
aI232546103
aI235069243
aI233070399
aI36855617
aI217964358
aI204918753
aI207609679
aI208691026
aI226873315
aI203611992
aI42721114
aI203448157
aI214589278
aI384865
aI50257763
aI233627497
aI202465131
aI49897325
aI209477486
aI216588151
aI208658305
aI36298626
aI234479492
aI210132872
aI202530698
aI233889681
aI44294049
aI229924770
aI204562340
aI49405862
aI211050409
aI39968685
aI45539247
aI232382397
aI38625215
aI34627521
aI48127940
aI286662
aI210270881
aI225697743
aI204005328
aI239132625
aI188370
aI200800393
aI213114846
aI231399392
aI224845793
aI215060476
aI216890023
aI41934830
aI211673073
aI206921718
aI203120631
aI204955642
aI223940607
aI237985016
aI208005301
aI220192774
aI223371271
aI45441034
aI49799181
aI236085262
aI238182420
aI238182426
aI208953371
aI220258334
aI40689698
aI230445063
aI232611888
aI37482229
aI38821940
aI215146563
aI222126148
aI211411019
aI233234508
aI229204045
aI204214285
aI38395984
aI38985809
aI50454610
aI48914520
aI219603035
aI34088816
aI32759913
aI202268779
aI232819184
aI33153134
aI34791537
aI48586866
aI202137717
aI228810877
aI202530944
aI41312385
aI33225409
aI202629265
aI33054871
aI229204127
aI32761200
aI201515170
aI35610788
aI239461745
aI47767720
aI220029099
aI229761196
aI210493613
aI43606191
aI208036016
aI217702579
aI32596148
aI49143990
aI35283130
aI211052659
aI236708038
aI211706057
aI36659402
aI212492497
aI234873051
aI33546460
aI38002912
aI232317156
aI204988646
aI230121703
aI203022569
aI42950891
aI34693358
aI213278960
aI39051507
aI232775924
aI232088958
aI207315191
aI38330616
aI232481020
aI206790911
aI206135557
aI45834502
aI204678529
aI220603778
aI215671065
aI227893531
aI231078618
aI234846939
aI203612452
aI36954405
aI44425510
aI226124072
aI200021110
aI51437870
aI214285681
aI232448306
aI211804480
aI210198849
aI201253190
aI207184201
aI236446026
aI38461773
aI39477582
aI209477986
aI228757563
aI49733992
aI212197740
aI46227823
aI215179633
aI226812280
aI237675924
aI47145345
aI40296835
aI209805701
aI203383176
aI35283339
aI229466508
aI220291472
aI41410965
aI204038552
aI212701252
aI47392155
aI40657317
aI45277607
aI208986538
aI36528559
aI237298096
aI203710902
aI229663159
aI220062139
aI38756798
aI39444928
aI36495811
aI201587446
aI226550222
aI229822541
aI232153552
aI232766200
aI213606867
aI50586068
aI42131925
aI34234846
aI216195552
aI215966179
aI200958443
aI219374061
aI220160496
aI42000881
aI34103795
aI230580726
aI209084920
aI201482747
aI230663594
aI229237248
aI235397633
aI226845187
aI45474308
aI235364870
aI34595335
aI211345929
aI47374861
aI39593389
aI240345620
aI33382933
aI42066455
aI200172056
aI201843227
aI46162460
aI234676765
aI36823584
aI218162608
aI213377573
aI205906471
aI202695208
aI236479017
aI215933482
aI208986674
aI219931187
aI233824822
aI234021433
aI205951071
aI50258506
aI234414670
aI230297699
aI205251156
aI230974038
aI36069981
aI229073509
aI211411559
aI209543784
aI209838698
aI208101997
aI201908847
aI39969394
aI219865726
aI200434303
aI205873795
aI215704196
aI219800199
aI200532622
aI51253402
aI50094745
aI213181086
aI229958303
aI235528870
aI231563944
aI222575391
aI47112899
aI38658758
aI232153799
aI231989961
aI32499150
aI236872406
aI43246295
aI211083992
aI42787547
aI51208924
aI43999965
aI40526559
aI47080162
aI210526948
aI216382246
aI227107561
aI221733611
aI50225900
aI208265965
aI50848494
aI227697391
aI216654577
aI42230514
aI218292980
aI37053176
aI221930235
aI38822654
aI226681600
aI38200065
aI200696578
aI221504259
aI40919816
aI227140361
aI200434448
aI227894034
aI38986516
aI223973508
aI48390938
aI50193182
aI44753697
aI214852388
aI49472298
aI45442525
aI219669298
aI201734963
aI48915252
aI200648159
aI227173184
aI208036673
aI210625346
aI38003525
aI45065697
aI43901770
aI39936844
aI42984273
aI234644308
aI219542764
aI43017048
aI50193246
aI47506278
aI211084140
aI206398334
aI233169791
aI33907588
aI40199051
aI47965068
aI215114640
aI228090770
aI235037588
aI43770774
aI226354073
aI216195997
aI224846756
aI238117797
aI33121191
aI220488617
aI214426538
aI228516779
aI49996718
aI42951599
aI44196784
aI211411889
aI237134770
aI218653619
aI236905399
aI234152888
aI43869117
aI38233026
aI236807112
aI240346061
aI237822929
aI37774290
aI209937365
aI215835606
aI217572313
aI210002910
aI37315551
aI212394979
aI201384935
aI228287466
aI47735787
aI49964015
aI229604179
aI37223252
aI47178748
aI229270533
aI49046534
aI209347593
aI237724683
aI225731601
aI32105490
aI203695619
aI50062357
aI219931670
aI215311390
aI45048865
aI210396195
aI48358436
aI218555430
aI50521129
aI223156627
aI237954095
aI228910600
aI48948279
aI42787896
aI47517876
aI36168763
aI32215221
aI230581313
aI40068164
aI200122163
aI235037766
aI217474121
aI31931234
aI228877390
aI216065104
aI225764435
aI237364310
aI45638743
aI32663055
aI31876189
aI210297955
aI200041578
aI208856172
aI220193902
aI41182319
aI50357360
aI231466100
aI232505399
aI209337194
aI44983423
aI39806083
aI235562124
aI36583175
aI38856216
aI200533145
aI33350811
aI40527005
aI35873955
aI33547428
aI211707045
aI207316141
aI34235566
aI239396018
aI35841204
aI51307704
aI235163394
aI32007364
aI200205511
aI49800395
aI42656973
aI217703630
aI228582610
aI230417621
aI216982745
aI38921434
aI236545243
aI219107537
aI38626537
aI209544438
aI37086761
aI217048312
aI200271098
aI49210621
aI231793920
aI229041413
aI38708780
aI201516779
aI33383706
aI46294300
aI229303587
aI32007465
aI38233388
aI215475502
aI228615474
aI235300147
aI47441210
aI223372607
aI32630082
aI208037194
aI208495954
aI222356819
aI212788565
aI419158
aI45278559
aI201221472
aI34792804
aI229760993
aI33842536
aI211543403
aI45081964
aI39937392
aI44721521
aI212297082
aI233039230
aI235791744
aI91526
aI210183745
aI36365704
aI200189506
aI206300559
aI203220368
aI209708435
aI34006420
aI227468694
aI229702553
aI208725401
aI213083549
aI44131744
aI215082406
aI231564871
aI236742060
aI232285614
aI222356912
aI230286769
aI42438965
aI43312576
aI34203075
aI231335365
aI228287948
aI39282126
aI49243599
aI37184980
aI227567061
aI43241721
aI35579353
aI37709276
aI234218973
aI226265238
aI222624677
aI33831846
aI205088234
aI204072429
aI235922926
aI38888947
aI38790647
aI44262905
aI43443706
aI207950080
aI219440645
aI201975303
aI31614472
aI40232460
aI45966863
aI236190638
aI219637270
aI34039319
aI37578264
aI233334297
aI230221339
aI209446434
aI227239460
aI230942248
aI225699420
aI206071338
aI215681279
aI33875507
aI221734456
aI237370292
aI49571423
aI49374788
aI304737
aI211510857
aI235136592
aI232384082
aI43640403
aI222586460
aI50488927
aI209315426
aI201014203
aI46917221
aI34006631
aI49145450
aI205481579
aI203253356
aI206857842
aI204891763
aI205874810
aI233596539
aI157319
aI229664394
aI207480464
aI42952341
aI212821659
aI229795487
aI38397600
aI201156258
aI210921129
aI203570119
aI235351085
aI208660143
aI226387634
aI208889523
aI228386485
aI228157115
aI235988671
aI211412672
aI213247681
aI200468162
aI213149384
aI217933514
aI221112013
aI227272398
aI36366035
aI216557268
aI50915038
aI211576546
aI230549220
aI202401510
aI231794411
aI204531436
aI210134766
aI227337967
aI42034936
aI34170617
aI34662142
aI232318721
aI231499524
aI215437612
aI38845399
aI236742414
aI220587791
aI210954000
aI217442066
aI212133653
aI234383131
aI210265884
aI39773985
aI207218472
aI204684253
aI214263601
aI45672248
aI44394299
aI51373706
aI234632642
aI208070463
aI37250884
aI233727813
aI37578568
aI235693898
aI215672651
aI221734739
aI219572052
aI184633
aI236742488
aI38627161
aI229599066
aI34596702
aI215115617
aI43640676
aI208425276
aI213084010
aI231843474
aI38889335
aI230352762
aI33482619
aI211216255
aI214198144
aI208933184
aI213739394
aI34924422
aI31680393
aI228288403
aI204203925
aI213280664
aI232613788
aI230254502
aI207316904
aI39020458
aI227567532
aI200239022
aI215082928
aI36355059
aI226125749
aI216459190
aI226912187
aI205187005
aI233531328
aI204236738
aI51286180
aI219899853
aI36628435
aI217147348
aI46491605
aI48654297
aI39839707
aI228190172
aI36366303
aI239003617
aI37873636
aI217376742
aI42451301
aI227436520
aI234202791
aI36731901
aI39643121
aI231663605
aI218195960
aI229664766
aI234547201
aI239298564
aI34367496
aI205744137
aI226256907
aI233957388
aI228190225
aI232810514
aI228354069
aI226584598
aI227633175
aI230254618
aI232843293
aI215705631
aI226453537
aI207251490
aI38397987
aI232099056
aI229140147
aI32008244
aI220489782
aI38856771
aI219965514
aI39381067
aI232810581
aI218327129
aI206956637
aI39938142
aI228780127
aI49047649
aI229468259
aI202576230
aI49408102
aI226420843
aI209414255
aI201451633
aI38561907
aI221276276
aI208581315
aI212232311
aI234383482
aI219310204
aI219441277
aI210069630
aI212134017
aI48818307
aI49932420
aI217966726
aI201057986
aI235759759
aI237594768
aI232089745
aI42199187
aI227928215
aI215115930
aI49539227
aI203122846
aI201779359
aI210266277
aI229468327
aI217475240
aI229304490
aI226400562
aI205940909
aI228288686
aI235563189
aI36530359
aI215804091
aI238446782
aI205613252
aI45404535
aI233892048
aI227600593
aI231598292
aI236775645
aI210004190
aI227512699
aI33908972
aI236683374
aI49834222
aI230123760
aI237168882
aI220588278
aI234001103
aI33908991
aI45902081
aI239823108
aI49572104
aI216230154
aI47376651
aI219113748
aI234973471
aI237693217
aI200403235
aI41085220
aI227240229
aI215968038
aI36301097
aI217016625
aI226507827
aI207513912
aI228157753
aI226617661
aI46524734
aI213150015
aI41412930
aI33122627
aI214722886
aI236414690
aI209938772
aI46928271
aI227961181
aI209021278
aI208922983
aI48982377
aI236054890
aI230975852
aI43870574
aI34847806
aI201812344
aI238512508
aI229632381
aI36917653
aI209348994
aI33842923
aI237234568
aI207546763
aI38332812
aI208038286
aI48097680
aI218884500
aI210593518
aI36563353
aI230713760
aI39545250
aI207350180
aI37513638
aI32860586
aI51112364
aI39986930
aI214297006
aI227699122
aI236251572
aI233073078
aI227174844
aI202264774
aI47901124
aI40298952
aI209119689
aI37153229
aI42822094
aI207709944
aI39479765
aI215443927
aI236022234
aI201174736
aI236546526
aI232057312
aI236677606
aI234875370
aI202402286
aI203876850
aI222980597
aI239331830
aI207251959
aI31648259
aI231631369
aI219507220
aI36432406
aI39381532
aI43444771
aI206957093
aI206170663
aI215509545
aI218884650
aI233957933
aI38337630
aI42134073
aI289343
aI230681156
aI228233654
aI210528838
aI50162250
aI33647179
aI50096717
aI227109455
aI201288272
aI40233557
aI210561624
aI32959066
aI200370781
aI47081232
aI41052771
aI230910571
aI204302964
aI38496892
aI44755581
aI36792960
aI234351234
aI40751556
aI228289184
aI40102562
aI219965211
aI213609125
aI204663468
aI37677742
aI232614580
aI212757178
aI237529792
aI213576390
aI224848587
aI34171598
aI213838546
aI208530133
aI37551225
aI43838174
aI47442661
aI234449638
aI230451946
aI48360174
aI36170479
aI207153905
aI36563699
aI211938038
aI211675895
aI239987449
aI50129658
aI227896059
aI203188989
aI229206783
aI41020161
aI223374082
aI214526724
aI36072205
aI46820111
aI231117272
aI208956686
aI35318547
aI42936110
aI204827418
aI48884507
aI232160389
aI230910756
aI234482474
aI32898183
aI237366061
aI229141294
aI227273530
aI32435010
aI228748102
aI49638225
aI235793236
aI207186775
aI216099681
aI212659042
aI209206417
aI215182184
aI50981738
aI34171755
aI41905006
aI43477871
aI218223080
aI40889206
aI236317562
aI212167547
aI200436608
aI201904619
aI227011463
aI212233097
aI219769738
aI208038801
aI230517650
aI34827165
aI48622494
aI48098211
aI209382308
aI234301256
aI234187698
aI200108979
aI234187701
aI38005690
aI201386940
aI231237450
aI209251262
aI37546948
aI35384261
aI233728966
aI32992200
aI230091724
aI256980
aI47442902
aI202632154
aI228487921
aI238021600
aI218000355
aI204532715
aI44035052
aI35759954
aI232385523
aI37254283
aI225668087
aI227896312
aI41150292
aI33501887
aI218328064
aI234476032
aI240118794
aI42953745
aI227601431
aI218885144
aI215346202
aI228682781
aI229272608
aI236121121
aI235564067
aI50785316
aI209742885
aI203320358
aI233532457
aI216394794
aI228879404
aI226978866
aI213806131
aI211684521
aI34827325
aI37579839
aI235891798
aI41949419
aI238677080
aI221604957
aI209579102
aI38464615
aI45345897
aI232680560
aI234978494
aI207285368
aI210070657
aI43875265
aI37219460
aI237628549
aI206269579
aI213085325
aI226847886
aI234876047
aI233434256
aI49081490
aI36138134
aI230255767
aI204303512
aI228093084
aI44788896
aI32894113
aI201026722
aI39808164
aI232156325
aI231730349
aI37055663
aI43904186
aI230911163
aI44854461
aI216558792
aI234712265
aI219213003
aI228342989
aI43445459
aI45542615
aI230059224
aI202271961
aI34925793
aI42298595
aI206073060
aI200043751
aI203812072
aI231861483
aI223367720
aI236874994
aI203484403
aI203844856
aI237137147
aI217573249
aI227765516
aI237890829
aI231599374
aI49114383
aI33615122
aI233073942
aI234220829
aI219737375
aI35515681
aI215346469
aI37911772
aI206826796
aI208366897
aI213216563
aI221425045
aI43904309
aI226127160
aI35417401
aI51178815
aI207857547
aI42241921
aI233187212
aI33123659
aI205811021
aI50785620
aI215051605
aI209406251
aI220687715
aI206659877
aI214756716
aI44680527
aI234515828
aI236416373
aI227684863
aI236154232
aI221736315
aI37186946
aI219213187
aI228978053
aI232713609
aI49376651
aI231243039
aI213511569
aI208334227
aI207809940
aI37154201
aI210470105
aI43249051
aI221605280
aI220786087
aI36761007
aI32952904
aI213839282
aI229513599
aI220556725
aI202210549
aI45972726
aI210267590
aI235728333
aI45805008
aI215936465
aI37613011
aI49442263
aI49901018
aI211571279
aI233419846
aI40824285
aI208268766
aI228683231
aI203648480
aI211676643
aI37350885
aI225734121
aI31849725
aI200797681
aI41086450
aI207908340
aI32927221
aI230911479
aI212037112
aI223866362
aI44035580
aI237235719
aI50163209
aI37416462
aI32239126
aI46853655
aI214068760
aI226127385
aI231435803
aI230157852
aI232582686
aI45182495
aI257568
aI39118768
aI219442723
aI36072998
aI203845161
aI50425386
aI210628141
aI235793968
aI218721841
aI42957639
aI211512887
aI44756537
aI46362171
aI48851924
aI228988770
aI212561471
aI214527556
aI208498245
aI213741126
aI290377
aI208399947
aI40726094
aI213413458
aI238087769
aI228486753
aI201059940
aI228683367
aI213544580
aI33910408
aI32641645
aI32861843
aI202239637
aI39939735
aI48918170
aI228191899
aI40975642
aI232641136
aI226881190
aI32501416
aI216803851
aI206859953
aI223833778
aI218689203
aI50392756
aI201191097
aI201719071
aI44610706
aI33615559
aI214003401
aI213446346
aI235826895
aI44691152
aI237039313
aI43056420
aI42135261
aI41610975
aI205188834
aI231567078
aI208727783
aI49475308
aI237661934
aI210005749
aI229797626
aI47542012
aI235761407
aI37482244
aI39546632
aI36990730
aI44592913
aI214462226
aI227536660
aI212135702
aI234745625
aI206434075
aI227405598
aI203452191
aI204238626
aI36890587
aI41767558
aI34402086
aI227602215
aI209284904
aI240316201
aI201223978
aI33710320
aI44625710
aI216581538
aI231829296
aI237236017
aI205745970
aI202043193
aI237268796
aI226979645
aI216788802
aI231632712
aI231108439
aI236285791
aI208924519
aI205975400
aI236463021
aI48228328
aI46821237
aI202633080
aI40358548
aI51441531
aI36171647
aI44330880
aI38236040
aI216690578
aI46854035
aI220131222
aI36433816
aI219705241
aI212627356
aI227644058
aI45281183
aI231108513
aI35483555
aI218722212
aI227569573
aI235728806
aI213460977
aI227372974
aI36925360
aI225669042
aI218886067
aI218296263
aI208786082
aI42758094
aI216657872
aI214822866
aI48852950
aI230715355
aI42135517
aI208433121
aI36663266
aI227471335
aI218245116
aI47149036
aI233074669
aI35450865
aI209219583
aI38596612
aI235628545
aI39055374
aI236875791
aI228061201
aI203780115
aI236959491
aI236974106
aI207056928
aI212234279
aI221868075
aI213608456
aI234123316
aI36532277
aI230647817
aI220533428
aI227733565
aI32075838
aI49999935
aI34041922
aI230977606
aI201814090
aI207122507
aI237531214
aI40340036
aI50688083
aI39219284
aI207188053
aI223244376
aI202633306
aI228847715
aI208957541
aI211284072
aI216494188
aI230518893
aI35066557
aI200896625
aI49016946
aI40988791
aI215707768
aI209252473
aI39547002
aI229109883
aI209186940
aI214921343
aI227635328
aI219639938
aI38629516
aI36008080
aI38006930
aI230683315
aI39383194
aI37515419
aI217772192
aI227810370
aI36991143
aI203723463
aI210268337
aI214695283
aI223801529
aI206074042
aI51081403
aI35614908
aI34762941
aI220557503
aI201683138
aI207218721
aI206303432
aI201224393
aI32093279
aI206926028
aI202844194
aI34894033
aI220688595
aI232354007
aI234713304
aI232321242
aI232755919
aI37482717
aI40923359
aI210759905
aI205844707
aI226448081
aI39665020
aI42529002
aI228326781
aI42627313
aI229699826
aI34042105
aI39776508
aI233296597
aI203419906
aI229208327
aI230700777
aI235008268
aI36925710
aI213250320
aI205254929
aI48656659
aI228356373
aI209383702
aI32796954
aI47935773
aI229798177
aI230252557
aI213348650
aI36317234
aI200110383
aI208040252
aI218526018
aI201847107
aI51179856
aI38072657
aI209613138
aI236908883
aI233968820
aI202568023
aI217182552
aI221311323
aI224850271
aI213985339
aI44462446
aI210137459
aI218689917
aI35451265
aI239595906
aI34369927
aI235368846
aI42398096
aI32931224
aI215970195
aI35418516
aI43970965
aI229831066
aI231305630
aI231674070
aI51232155
aI202633637
aI210760103
aI39514541
aI227245469
aI50393520
aI204009906
aI37319094
aI202142135
aI230289850
aI231567811
aI238055879
aI233894344
aI236057035
aI203911629
aI229241294
aI235565519
aI48787922
aI36180729
aI37253596
aI208728541
aI40694239
aI32960997
aI201945574
aI229962219
aI222786028
aI219935218
aI216330740
aI36139510
aI235565569
aI219509251
aI223015429
aI389643
aI230879756
aI36925969
aI50491922
aI200173657
aI228651548
aI230478597
aI229667361
aI212202021
aI39830984
aI213971497
aI214528555
aI235205168
aI33354290
aI48591412
aI208955486
aI203551287
aI45150780
aI45969987
aI45838917
aI48591434
aI234189387
aI36172365
aI44823120
aI231436885
aI225440347
aI220525149
aI38203999
aI44298849
aI234091106
aI237796795
aI230978149
aI43348588
aI203715187
aI216593015
aI216920697
aI200798845
aI203747967
aI37319297
aI37833729
aI225800838
aI36565644
aI219181709
aI37155476
aI233599642
aI34796188
aI36213530
aI39408412
aI233501354
aI39678635
aI229438125
aI212101235
aI34018078
aI41415350
aI234255033
aI214495932
aI218755773
aI227013311
aI204337857
aI50393795
aI229643041
aI214777292
aI45544144
aI35418833
aI233468629
aI210989784
aI213873370
aI43053794
aI229307107
aI210924261
aI201683686
aI36795111
aI228586217
aI230159083
aI35975920
aI202470129
aI43152115
aI40530679
aI213676794
aI232321787
aI207188737
aI32076547
aI214360030
aI48100105
aI39318286
aI214922000
aI36958995
aI31879956
aI218362645
aI213545752
aI212038425
aI214299418
aI220525339
aI202044191
aI216743387
aI233629830
aI234877734
aI215085868
aI233182002
aI222707166
aI37581625
aI204051253
aI36290016
aI213775171
aI204829517
aI32863055
aI228488018
aI232387422
aI33420131
aI229700452
aI211317606
aI220717135
aI47084396
aI38630258
aI33223540
aI31686121
aI227013509
aI47708465
aI220197775
aI222884765
aI228539888
aI231109538
aI219181987
aI32633767
aI230290350
aI232158127
aI234845104
aI225670066
aI31912884
aI212530102
aI229795999
aI230847425
aI215151556
aI208040901
aI202470342
aI238089165
aI236483536
aI49345496
aI213264548
aI218887142
aI49312743
aI36402152
aI45544426
aI236549102
aI185171
aI236516340
aI209327746
aI231570943
aI231270570
aI215348223
aI235893769
aI46953484
aI37090317
aI209482768
aI236516369
aI215806996
aI218199063
aI203060248
aI226456601
aI37909539
aI229602340
aI222892894
aI235074623
aI222721092
aI230028359
aI203603468
aI230847568
aI34337877
aI203650135
aI51115098
aI42923099
aI236614749
aI41579616
aI208893027
aI46658661
aI215020647
aI43054184
aI231273577
aI213611628
aI229110902
aI211711102
aI40727681
aI216298628
aI43054213
aI219247755
aI200588824
aI218887316
aI34206872
aI157892
aI229176474
aI206861472
aI38794403
aI222950565
aI216855719
aI210400424
aI231011500
aI200408605
aI236680371
aI232387764
aI218887352
aI224181791
aI209747488
aI210171074
aI210793667
aI205812937
aI237807833
aI216298706
aI217838805
aI210649112
aI204207323
aI232387805
aI226620640
aI213706960
aI357604
aI232977638
aI35878119
aI236877033
aI39548140
aI218330351
aI35058930
aI215938293
aI31978745
aI227702010
aI200701180
aI37942527
aI213972224
aI227636483
aI234910981
aI236582155
aI229340433
aI35681555
aI37877014
aI215754969
aI220427544
aI237827355
aI210892066
aI221345060
aI235730214
aI211842343
aI38819042
aI228750634
aI227408873
aI39478085
aI51049784
aI209941818
aI240022843
aI207910208
aI36861249
aI34600263
aI232846669
aI33092949
aI218245564
aI48362848
aI227800418
aI201061734
aI231936913
aI43447660
aI214432065
aI214267248
aI228160883
aI205845879
aI44201339
aI44529027
aI229504390
aI235337096
aI219575689
aI41055627
aI207811980
aI207779214
aI214037903
aI200504722
aI236778900
aI232706969
aI228998724
aI229012892
aI230585760
aI215414179
aI47543723
aI210236849
aI39155126
aI218756538
aI233378720
aI39417282
aI37945052
aI40531398
aI203486666
aI36481273
aI220788190
aI50066911
aI233207268
aI214693351
aI208696808
aI39548396
aI204109293
aI200406510
aI51017200
aI204764659
aI50899198
aI292347
aI35640234
aI202077694
aI40531457
aI212465159
aI237794827
aI237630988
aI231869071
aI40375214
aI35780118
aI47937048
aI34305563
aI44955169
aI236320290
aI205454939
aI209909291
aI34338348
aI233957640
aI47642163
aI48266846
aI230422073
aI220001850
aI35747388
aI203880001
aI217311499
aI200144461
aI47969870
aI36435535
aI219280978
aI201193043
aI32994902
aI46790231
aI210302556
aI46233187
aI46954084
aI204308070
aI204273258
aI227145324
aI208873746
aI227636847
aI214070900
aI37418617
aI33093246
aI50296447
aI236655552
aI207030491
aI234878599
aI209843848
aI217005676
aI209811082
aI34961038
aI41383567
aI218592912
aI227112593
aI45044675
aI44627609
aI35911322
aI228816543
aI234256032
aI50919073
aI203355811
aI216325186
aI200343153
aI214529705
aI238876331
aI42399409
aI213415604
aI211547837
aI201094846
aI211611505
aI39745218
aI228751046
aI38529313
aI209680072
aI209811145
aI206665419
aI206075600
aI37254865
aI236320475
aI47412956
aI200304933
aI34666208
aI229603041
aI37549797
aI207484651
aI236715646
aI227145462
aI206010105
aI49313531
aI226306346
aI215054079
aI45153068
aI231864076
aI205092622
aI45984045
aI237256323
aI48658196
aI237696791
aI229392004
aI230979355
aI49280796
aI201946909
aI44300063
aI237434656
aI236955952
aI34109218
aI215283494
aI32110376
aI41991815
aI200865580
aI212694832
aI226522929
aI40466227
aI42858294
aI222361401
aI216327772
aI227604285
aI228849474
aI217708359
aI225670992
aI45479771
aI210138975
aI222874155
aI232978276
aI204076904
aI37681002
aI204011380
aI44398457
aI233502590
aI232781695
aI219871109
aI228849542
aI44627847
aI200406922
aI237467535
aI43120528
aI43411779
aI226621334
aI201324440
aI50151067
aI213514149
aI207943590
aI226097063
aI36206510
aI50001839
aI48691121
aI36337587
aI233207734
aI218691512
aI217595551
aI207648701
aI36075460
aI207255493
aI208436897
aI214235080
aI228849609
aI229406667
aI212432845
aI47413200
aI231855096
aI206043090
aI46331861
aI228030423
aI39614424
aI230324185
aI228030428
aI234026974
aI216889311
aI208336864
aI211679203
aI36108262
aI39436645
aI50329587
aI39057396
aI212824852
aI214759419
aI208697343
aI227997697
aI32536578
aI219543555
aI230029317
aI232978438
aI51148807
aI203618315
aI212891663
aI45217809
aI231838523
aI230750231
aI213326773
aI236058656
aI38434850
aI38893603
aI211384366
aI37877807
aI217937968
aI229177393
aI226031667
aI47872052
aI201750582
aI230717499
aI33519679
aI47347781
aI212858951
aI232421451
aI227113038
aI229210191
aI216332368
aI37648465
aI237041746
aI34207829
aI231274582
aI49936474
aI201291874
aI218789987
aI43546724
aI47511653
aI43841639
aI43186290
aI36730996
aI48953462
aI34601080
aI39057530
aI231798908
aI45414529
aI225736838
aI213710985
aI36665483
aI227211404
aI214038669
aI325778
aI31750291
aI41941143
aI230588100
aI206698653
aI229439646
aI210958499
aI212400292
aI230586534
aI200243370
aI33126574
aI45709488
aI215087286
aI226293946
aI232257727
aI51083457
aI47413444
aI211646662
aI35158218
aI202576930
aI228686033
aI237795542
aI152612
aI32798943
aI201128164
aI220100837
aI39512444
aI162028
aI203290861
aI38369519
aI221214963
aI43186425
aI211741055
aI33126652
aI35780867
aI40270090
aI204896528
aI217120473
aI203815192
aI211155225
aI47905050
aI235600155
aI202504480
aI33290532
aI32766247
aI228489513
aI232368519
aI237402416
aI213088561
aI201849140
aI216201527
aI43579708
aI34470209
aI229112131
aI42216191
aI200145224
aI32831822
aI200309071
aI212269392
aI219609425
aI46299474
aI232847699
aI200112468
aI228817237
aI34666839
aI45054296
aI47937888
aI220035425
aI36075874
aI235338086
aI41417065
aI40392488
aI227473776
aI226425202
aI211175076
aI209321705
aI229964176
aI228354920
aI202439058
aI233601427
aI209287574
aI50395544
aI229898650
aI225749402
aI233732519
aI214923689
aI218397106
aI234092979
aI204201666
aI233404864
aI212629956
aI45218249
aI235010509
aI42858966
aI217333497
aI35518939
aI230062558
aI208599521
aI39320034
aI217643493
aI238156268
aI206633461
aI236517878
aI207747580
aI233241092
aI209287685
aI237992455
aI200800777
aI200014348
aI215874063
aI31619601
aI228653593
aI208239132
aI260642
aI230881833
aI208797447
aI45414956
aI214596142
aI50657839
aI213416505
aI43973179
aI37550652
aI230128192
aI227408450
aI36895303
aI41187916
aI232028751
aI228194905
aI205584990
aI32209503
aI210893410
aI230423139
aI231111273
aI210205290
aI215153262
aI205683312
aI209043219
aI35563966
aI234158710
aI220265080
aI219249274
aI206436988
aI239499901
aI33684094
aI229603968
aI238320259
aI36272775
aI227080843
aI204995213
aI234945167
aI214334096
aI204339858
aI204536470
aI212531870
aI218102433
aI231111331
aI231504548
aI231602855
aI207180914
aI229440176
aI212368056
aI203586236
aI231307965
aI44497599
aI49576641
aI210348491
aI215094390
aI32864972
aI206633678
aI221379288
aI220068570
aI40532699
aI218888928
aI49052385
aI48691938
aI43776740
aI228752109
aI43154160
aI46791410
aI47741685
aI42367734
aI231930616
aI210762494
aI32996096
aI39549699
aI31914756
aI237828873
aI213613325
aI34700049
aI212564761
aI260890
aI205683492
aI39680805
aI231767857
aI37223210
aI50461484
aI51378989
aI235764526
aI230521650
aI200866612
aI35678686
aI203488061
aI37616447
aI229440323
aI32340805
aI221444935
aI43645769
aI227900234
aI208534347
aI230161230
aI204581347
aI234290004
aI38337365
aI227441498
aI234552161
aI213941090
aI231930723
aI224852837
aI228916070
aI200407913
aI201587562
aI231111534
aI216481599
aI228326268
aI32340867
aI231701386
aI214989707
aI239172492
aI232225682
aI209550230
aI216660887
aI227605401
aI213547932
aI201358237
aI205978526
aI36502432
aI228457377
aI226622370
aI44432293
aI215874478
aI41481455
aI207289268
aI228981697
aI210272075
aI214858693
aI219806665
aI36404170
aI218299344
aI223083473
aI36371410
aI209043278
aI162775
aI228064217
aI226815355
aI202832863
aI38796258
aI212761572
aI210141009
aI42302441
aI37387245
aI37977071
aI211834024
aI231701496
aI41286650
aI35159036
aI237599741
aI39278466
aI204438527
aI200768522
aI216103947
aI33389580
aI206699537
aI37551122
aI200145941
aI235469847
aI45727579
aI45480998
aI233493681
aI230784040
aI209976364
aI36437042
aI212194483
aI237311156
aI211123262
aI233765952
aI43613249
aI216661059
aI212696134
aI47643720
aI227540042
aI236197047
aI206732368
aI202953912
aI34602067
aI232881239
aI232881245
aI209583198
aI233439077
aI31849568
aI201129062
aI211063996
aI233471082
aI37944431
aI230882417
aI237370482
aI208764019
aI38829223
aI210697337
aI48495740
aI219380864
aI236059778
aI44432517
aI232127623
aI44366986
aI212139147
aI210179266
aI33455246
aI32177295
aI214432915
aI49020054
aI215776409
aI43876207
aI221445276
aI32013469
aI221478046
aI227048607
aI49348464
aI237535089
aI207486124
aI219070323
aI220789940
aI34340021
aI215317689
aI232651964
aI36568254
aI234355904
aI34798785
aI36076743
aI210074828
aI207748303
aI205487317
aI294102
aI44072156
aI204012766
aI229276898
aI213548265
aI214727914
aI213253356
aI237829357
aI236453103
aI223902961
aI214662389
aI206699766
aI36502779
aI214662397
aI50527486
aI231308544
aI49151235
aI40905260
aI212237582
aI33127695
aI222002450
aI213384471
aI49052953
aI207453467
aI47709469
aI211418399
aI218463524
aI238452005
aI48823593
aI238845226
aI220610439
aI48758060
aI42761525
aI213318967
aI231636280
aI227376446
aI227540288
aI202636609
aI211713346
aI213253443
aI239009092
aI209026380
aI214302029
aI229211471
aI35978578
aI226622805
aI213024088
aI208508132
aI203193691
aI206273884
aI50330975
aI237939259
aI227802476
aI234650989
aI36732275
aI32472439
aI216300922
aI37551485
aI215121280
aI33619329
aI34733443
aI214203783
aI31948173
aI200867214
aI210664849
aI42171794
aI216923541
aI44629400
aI46202267
aI234552733
aI239730083
aI34274724
aI209485225
aI211942829
aI235339184
aI217873843
aI211156404
aI45678006
aI208469431
aI45448632
aI226164155
aI238222780
aI33783235
aI231734729
aI35880399
aI44400081
aI203226580
aI229735898
aI42969679
aI50363871
aI206765536
aI33783268
aI226929233
aI239336937
aI42925546
aI34700786
aI236715507
aI221478388
aI229342713
aI219545082
aI229894741
aI33488387
aI215055877
aI205946388
aI203259415
aI205684248
aI231046682
aI205618717
aI218693150
aI51052064
aI34734000
aI208469539
aI206200635
aI41582126
aI218786397
aI210599480
aI217841213
aI208371265
aI220528203
aI233340496
aI228326994
aI38731347
aI38960727
aI214695514
aI234099983
aI33062493
aI209124958
aI211320415
aI327267
aI33455717
aI49282662
aI226885224
aI212369001
aI49984655
aI208502385
aI231638172
aI223903347
aI37621481
aI48496253
aI206044798
aI33581675
aI46994710
aI43220616
aI219545227
aI40074892
aI47431618
aI233373340
aI214695582
aI34897569
aI236420771
aI219512490
aI47906477
aI218463918
aI38993586
aI235551
aI209616566
aI35126978
aI34045636
aI32440005
aI42729160
aI201272025
aI40435403
aI33652428
aI35290829
aI236259983
aI48561877
aI44695255
aI38114596
aI218857180
aI50888417
aI236093159
aI220724969
aI43220714
aI34373356
aI212664047
aI40206066
aI37846774
aI222789368
aI211025657
aI238255870
aI36896515
aI213647111
aI36437768
aI34821420
aI202489815
aI33270402
aI33292052
aI237207323
aI46775131
aI41549605
aI219905832
aI42696489
aI214275378
aI215744304
aI209627784
aI211746613
aI45907768
aI223313724
aI208404288
aI39386945
aI214433602
aI220397379
aI228261702
aI209256417
aI213188427
aI233668430
aI214237007
aI39485265
aI43515875
aI232685400
aI229048153
aI239468380
aI213352285
aI231407456
aI236388197
aI45449068
aI32472942
aI44782909
aI31719280
aI49774449
aI47939449
aI50143969
aI206733184
aI44859267
aI36374999
aI50528141
aI200736654
aI234160017
aI224838109
aI32407450
aI45285275
aI34406301
aI215875487
aI238223344
aI227737513
aI232521646
aI36503472
aI34602931
aI232783798
aI36044732
aI227246014
aI206077887
aI232849355
aI202997720
aI50539173
aI214499297
aI42762235
aI231505892
aI219152364
aI216911202
aI230260720
aI34930683
atp2
Rp3
.