(dp0
Vtype
p1
Vchampion
p2
sVversion
p3
V7.20.3
p4
sVdata
p5
(dp6
V133
p7
(dp8
Vtitle
p9
VDemacia's Wings
p10
sVid
p11
I133
sVkey
p12
VQuinn
p13
sVname
p14
VQuinn
p15
ssV164
p16
(dp17
Vtitle
p18
Vthe Steel Shadow
p19
sVid
p20
I164
sVkey
p21
VCamille
p22
sVname
p23
VCamille
p24
ssV131
p25
(dp26
Vtitle
p27
VScorn of the Moon
p28
sVid
p29
I131
sVkey
p30
VDiana
p31
sVname
p32
VDiana
p33
ssV498
p34
(dp35
Vtitle
p36
Vthe Rebel
p37
sVid
p38
I498
sVkey
p39
VXayah
p40
sVname
p41
VXayah
p42
ssV136
p43
(dp44
Vtitle
p45
VThe Star Forger
p46
sVid
p47
I136
sVkey
p48
VAurelionSol
p49
sVname
p50
VAurelion Sol
p51
ssV134
p52
(dp53
Vtitle
p54
Vthe Dark Sovereign
p55
sVid
p56
I134
sVkey
p57
VSyndra
p58
sVname
p59
VSyndra
p60
ssV497
p61
(dp62
Vtitle
p63
VThe Charmer
p64
sVid
p65
I497
sVkey
p66
VRakan
p67
sVname
p68
VRakan
p69
ssV24
p70
(dp71
Vtitle
p72
VGrandmaster at Arms
p73
sVid
p74
I24
sVkey
p75
VJax
p76
sVname
p77
VJax
p78
ssV25
p79
(dp80
Vtitle
p81
VFallen Angel
p82
sVid
p83
I25
sVkey
p84
VMorgana
p85
sVname
p86
VMorgana
p87
ssV26
p88
(dp89
Vtitle
p90
Vthe Chronokeeper
p91
sVid
p92
I26
sVkey
p93
VZilean
p94
sVname
p95
VZilean
p96
ssV27
p97
(dp98
Vtitle
p99
Vthe Mad Chemist
p100
sVid
p101
I27
sVkey
p102
VSinged
p103
sVname
p104
VSinged
p105
ssV20
p106
(dp107
Vtitle
p108
Vthe Yeti Rider
p109
sVid
p110
I20
sVkey
p111
VNunu
p112
sVname
p113
VNunu
p114
ssV21
p115
(dp116
Vtitle
p117
Vthe Bounty Hunter
p118
sVid
p119
I21
sVkey
p120
VMissFortune
p121
sVname
p122
VMiss Fortune
p123
ssV22
p124
(dp125
Vtitle
p126
Vthe Frost Archer
p127
sVid
p128
I22
sVkey
p129
VAshe
p130
sVname
p131
VAshe
p132
ssV23
p133
(dp134
Vtitle
p135
Vthe Barbarian King
p136
sVid
p137
I23
sVkey
p138
VTryndamere
p139
sVname
p140
VTryndamere
p141
ssV28
p142
(dp143
Vtitle
p144
VAgony's Embrace
p145
sVid
p146
I28
sVkey
p147
VEvelynn
p148
sVname
p149
VEvelynn
p150
ssV29
p151
(dp152
Vtitle
p153
Vthe Plague Rat
p154
sVid
p155
I29
sVkey
p156
VTwitch
p157
sVname
p158
VTwitch
p159
ssV222
p160
(dp161
Vtitle
p162
Vthe Loose Cannon
p163
sVid
p164
I222
sVkey
p165
VJinx
p166
sVname
p167
VJinx
p168
ssV4
p169
(dp170
Vtitle
p171
Vthe Card Master
p172
sVid
p173
I4
sVkey
p174
VTwistedFate
p175
sVname
p176
VTwisted Fate
p177
ssV8
p178
(dp179
Vtitle
p180
Vthe Crimson Reaper
p181
sVid
p182
I8
sVkey
p183
VVladimir
p184
sVname
p185
VVladimir
p186
ssV163
p187
(dp188
Vtitle
p189
Vthe Stoneweaver
p190
sVid
p191
I163
sVkey
p192
VTaliyah
p193
sVname
p194
VTaliyah
p195
ssV120
p196
(dp197
Vtitle
p198
Vthe Shadow of War
p199
sVid
p200
I120
sVkey
p201
VHecarim
p202
sVname
p203
VHecarim
p204
ssV121
p205
(dp206
Vtitle
p207
Vthe Voidreaver
p208
sVid
p209
I121
sVkey
p210
VKhazix
p211
sVname
p212
VKha'Zix
p213
ssV122
p214
(dp215
Vtitle
p216
Vthe Hand of Noxus
p217
sVid
p218
I122
sVkey
p219
VDarius
p220
sVname
p221
VDarius
p222
ssV267
p223
(dp224
Vtitle
p225
Vthe Tidecaller
p226
sVid
p227
I267
sVkey
p228
VNami
p229
sVname
p230
VNami
p231
ssV266
p232
(dp233
Vtitle
p234
Vthe Darkin Blade
p235
sVid
p236
I266
sVkey
p237
VAatrox
p238
sVname
p239
VAatrox
p240
ssV126
p241
(dp242
Vtitle
p243
Vthe Defender of Tomorrow
p244
sVid
p245
I126
sVkey
p246
VJayce
p247
sVname
p248
VJayce
p249
ssV127
p250
(dp251
Vtitle
p252
Vthe Ice Witch
p253
sVid
p254
I127
sVkey
p255
VLissandra
p256
sVname
p257
VLissandra
p258
ssV268
p259
(dp260
Vtitle
p261
Vthe Emperor of the Sands
p262
sVid
p263
I268
sVkey
p264
VAzir
p265
sVname
p266
VAzir
p267
ssV59
p268
(dp269
Vtitle
p270
Vthe Exemplar of Demacia
p271
sVid
p272
I59
sVkey
p273
VJarvanIV
p274
sVname
p275
VJarvan IV
p276
ssV58
p277
(dp278
Vtitle
p279
Vthe Butcher of the Sands
p280
sVid
p281
I58
sVkey
p282
VRenekton
p283
sVname
p284
VRenekton
p285
ssV55
p286
(dp287
Vtitle
p288
Vthe Sinister Blade
p289
sVid
p290
I55
sVkey
p291
VKatarina
p292
sVname
p293
VKatarina
p294
ssV54
p295
(dp296
Vtitle
p297
VShard of the Monolith
p298
sVid
p299
I54
sVkey
p300
VMalphite
p301
sVname
p302
VMalphite
p303
ssV57
p304
(dp305
Vtitle
p306
Vthe Twisted Treant
p307
sVid
p308
I57
sVkey
p309
VMaokai
p310
sVname
p311
VMaokai
p312
ssV56
p313
(dp314
Vtitle
p315
Vthe Eternal Nightmare
p316
sVid
p317
I56
sVkey
p318
VNocturne
p319
sVname
p320
VNocturne
p321
ssV51
p322
(dp323
Vtitle
p324
Vthe Sheriff of Piltover
p325
sVid
p326
I51
sVkey
p327
VCaitlyn
p328
sVname
p329
VCaitlyn
p330
ssV50
p331
(dp332
Vtitle
p333
Vthe Master Tactician
p334
sVid
p335
I50
sVkey
p336
VSwain
p337
sVname
p338
VSwain
p339
ssV53
p340
(dp341
Vtitle
p342
Vthe Great Steam Golem
p343
sVid
p344
I53
sVkey
p345
VBlitzcrank
p346
sVname
p347
VBlitzcrank
p348
ssV412
p349
(dp350
Vtitle
p351
Vthe Chain Warden
p352
sVid
p353
I412
sVkey
p354
VThresh
p355
sVname
p356
VThresh
p357
ssV115
p358
(dp359
Vtitle
p360
Vthe Hexplosives Expert
p361
sVid
p362
I115
sVkey
p363
VZiggs
p364
sVname
p365
VZiggs
p366
ssV114
p367
(dp368
Vtitle
p369
Vthe Grand Duelist
p370
sVid
p371
I114
sVkey
p372
VFiora
p373
sVname
p374
VFiora
p375
ssV117
p376
(dp377
Vtitle
p378
Vthe Fae Sorceress
p379
sVid
p380
I117
sVkey
p381
VLulu
p382
sVname
p383
VLulu
p384
ssV89
p385
(dp386
Vtitle
p387
Vthe Radiant Dawn
p388
sVid
p389
I89
sVkey
p390
VLeona
p391
sVname
p392
VLeona
p393
ssV111
p394
(dp395
Vtitle
p396
Vthe Titan of the Depths
p397
sVid
p398
I111
sVkey
p399
VNautilus
p400
sVname
p401
VNautilus
p402
ssV110
p403
(dp404
Vtitle
p405
Vthe Arrow of Retribution
p406
sVid
p407
I110
sVkey
p408
VVarus
p409
sVname
p410
VVarus
p411
ssV113
p412
(dp413
Vtitle
p414
VFury of the North
p415
sVid
p416
I113
sVkey
p417
VSejuani
p418
sVname
p419
VSejuani
p420
ssV112
p421
(dp422
Vtitle
p423
Vthe Machine Herald
p424
sVid
p425
I112
sVkey
p426
VViktor
p427
sVname
p428
VViktor
p429
ssV82
p430
(dp431
Vtitle
p432
Vthe Iron Revenant
p433
sVid
p434
I82
sVkey
p435
VMordekaiser
p436
sVname
p437
VMordekaiser
p438
ssV83
p439
(dp440
Vtitle
p441
VShepherd of Souls
p442
sVid
p443
I83
sVkey
p444
VYorick
p445
sVname
p446
VYorick
p447
ssV80
p448
(dp449
Vtitle
p450
Vthe Artisan of War
p451
sVid
p452
I80
sVkey
p453
VPantheon
p454
sVname
p455
VPantheon
p456
ssV81
p457
(dp458
Vtitle
p459
Vthe Prodigal Explorer
p460
sVid
p461
I81
sVkey
p462
VEzreal
p463
sVname
p464
VEzreal
p465
ssV119
p466
(dp467
Vtitle
p468
Vthe Glorious Executioner
p469
sVid
p470
I119
sVkey
p471
VDraven
p472
sVname
p473
VDraven
p474
ssV84
p475
(dp476
Vtitle
p477
Vthe Fist of Shadow
p478
sVid
p479
I84
sVkey
p480
VAkali
p481
sVname
p482
VAkali
p483
ssV85
p484
(dp485
Vtitle
p486
Vthe Heart of the Tempest
p487
sVid
p488
I85
sVkey
p489
VKennen
p490
sVname
p491
VKennen
p492
ssV429
p493
(dp494
Vtitle
p495
Vthe Spear of Vengeance
p496
sVid
p497
I429
sVkey
p498
VKalista
p499
sVname
p500
VKalista
p501
ssV3
p502
(dp503
Vtitle
p504
Vthe Colossus
p505
sVid
p506
I3
sVkey
p507
VGalio
p508
sVname
p509
VGalio
p510
ssV7
p511
(dp512
Vtitle
p513
Vthe Deceiver
p514
sVid
p515
I7
sVkey
p516
VLeblanc
p517
sVname
p518
VLeBlanc
p519
ssV421
p520
(dp521
Vtitle
p522
Vthe Void Burrower
p523
sVid
p524
I421
sVkey
p525
VRekSai
p526
sVname
p527
VRek'Sai
p528
ssV420
p529
(dp530
Vtitle
p531
Vthe Kraken Priestess
p532
sVid
p533
I420
sVkey
p534
VIllaoi
p535
sVname
p536
VIllaoi
p537
ssV427
p538
(dp539
Vtitle
p540
Vthe Green Father
p541
sVid
p542
I427
sVkey
p543
VIvern
p544
sVname
p545
VIvern
p546
ssV245
p547
(dp548
Vtitle
p549
Vthe Boy Who Shattered Time
p550
sVid
p551
I245
sVkey
p552
VEkko
p553
sVname
p554
VEkko
p555
ssV240
p556
(dp557
Vtitle
p558
Vthe Cantankerous Cavalier
p559
sVid
p560
I240
sVkey
p561
VKled
p562
sVname
p563
VKled
p564
ssV102
p565
(dp566
Vtitle
p567
Vthe Half-Dragon
p568
sVid
p569
I102
sVkey
p570
VShyvana
p571
sVname
p572
VShyvana
p573
ssV103
p574
(dp575
Vtitle
p576
Vthe Nine-Tailed Fox
p577
sVid
p578
I103
sVkey
p579
VAhri
p580
sVname
p581
VAhri
p582
ssV101
p583
(dp584
Vtitle
p585
Vthe Magus Ascendant
p586
sVid
p587
I101
sVkey
p588
VXerath
p589
sVname
p590
VXerath
p591
ssV106
p592
(dp593
Vtitle
p594
Vthe Thunder's Roar
p595
sVid
p596
I106
sVkey
p597
VVolibear
p598
sVname
p599
VVolibear
p600
ssV107
p601
(dp602
Vtitle
p603
Vthe Pridestalker
p604
sVid
p605
I107
sVkey
p606
VRengar
p607
sVname
p608
VRengar
p609
ssV104
p610
(dp611
Vtitle
p612
Vthe Outlaw
p613
sVid
p614
I104
sVkey
p615
VGraves
p616
sVname
p617
VGraves
p618
ssV105
p619
(dp620
Vtitle
p621
Vthe Tidal Trickster
p622
sVid
p623
I105
sVkey
p624
VFizz
p625
sVname
p626
VFizz
p627
ssV39
p628
(dp629
Vtitle
p630
Vthe Will of the Blades
p631
sVid
p632
I39
sVkey
p633
VIrelia
p634
sVname
p635
VIrelia
p636
ssV38
p637
(dp638
Vtitle
p639
Vthe Void Walker
p640
sVid
p641
I38
sVkey
p642
VKassadin
p643
sVname
p644
VKassadin
p645
ssV33
p646
(dp647
Vtitle
p648
Vthe Armordillo
p649
sVid
p650
I33
sVkey
p651
VRammus
p652
sVname
p653
VRammus
p654
ssV32
p655
(dp656
Vtitle
p657
Vthe Sad Mummy
p658
sVid
p659
I32
sVkey
p660
VAmumu
p661
sVname
p662
VAmumu
p663
ssV31
p664
(dp665
Vtitle
p666
Vthe Terror of the Void
p667
sVid
p668
I31
sVkey
p669
VChogath
p670
sVname
p671
VCho'Gath
p672
ssV30
p673
(dp674
Vtitle
p675
Vthe Deathsinger
p676
sVid
p677
I30
sVkey
p678
VKarthus
p679
sVname
p680
VKarthus
p681
ssV37
p682
(dp683
Vtitle
p684
VMaven of the Strings
p685
sVid
p686
I37
sVkey
p687
VSona
p688
sVname
p689
VSona
p690
ssV36
p691
(dp692
Vtitle
p693
Vthe Madman of Zaun
p694
sVid
p695
I36
sVkey
p696
VDrMundo
p697
sVname
p698
VDr. Mundo
p699
ssV35
p700
(dp701
Vtitle
p702
Vthe Demon Jester
p703
sVid
p704
I35
sVkey
p705
VShaco
p706
sVname
p707
VShaco
p708
ssV34
p709
(dp710
Vtitle
p711
Vthe Cryophoenix
p712
sVid
p713
I34
sVkey
p714
VAnivia
p715
sVname
p716
VAnivia
p717
ssV432
p718
(dp719
Vtitle
p720
Vthe Wandering Caretaker
p721
sVid
p722
I432
sVkey
p723
VBard
p724
sVname
p725
VBard
p726
ssV516
p727
(dp728
Vtitle
p729
VThe Fire below the Mountain
p730
sVid
p731
I516
sVkey
p732
VOrnn
p733
sVname
p734
VOrnn
p735
ssV60
p736
(dp737
Vtitle
p738
Vthe Spider Queen
p739
sVid
p740
I60
sVkey
p741
VElise
p742
sVname
p743
VElise
p744
ssV61
p745
(dp746
Vtitle
p747
Vthe Lady of Clockwork
p748
sVid
p749
I61
sVkey
p750
VOrianna
p751
sVname
p752
VOrianna
p753
ssV62
p754
(dp755
Vtitle
p756
Vthe Monkey King
p757
sVid
p758
I62
sVkey
p759
VMonkeyKing
p760
sVname
p761
VWukong
p762
ssV63
p763
(dp764
Vtitle
p765
Vthe Burning Vengeance
p766
sVid
p767
I63
sVkey
p768
VBrand
p769
sVname
p770
VBrand
p771
ssV64
p772
(dp773
Vtitle
p774
Vthe Blind Monk
p775
sVid
p776
I64
sVkey
p777
VLeeSin
p778
sVname
p779
VLee Sin
p780
ssV67
p781
(dp782
Vtitle
p783
Vthe Night Hunter
p784
sVid
p785
I67
sVkey
p786
VVayne
p787
sVname
p788
VVayne
p789
ssV68
p790
(dp791
Vtitle
p792
Vthe Mechanized Menace
p793
sVid
p794
I68
sVkey
p795
VRumble
p796
sVname
p797
VRumble
p798
ssV69
p799
(dp800
Vtitle
p801
Vthe Serpent's Embrace
p802
sVid
p803
I69
sVkey
p804
VCassiopeia
p805
sVname
p806
VCassiopeia
p807
ssV254
p808
(dp809
Vtitle
p810
Vthe Piltover Enforcer
p811
sVid
p812
I254
sVkey
p813
VVi
p814
sVname
p815
VVi
p816
ssV2
p817
(dp818
Vtitle
p819
Vthe Berserker
p820
sVid
p821
I2
sVkey
p822
VOlaf
p823
sVname
p824
VOlaf
p825
ssV6
p826
(dp827
Vtitle
p828
Vthe Dreadnought
p829
sVid
p830
I6
sVkey
p831
VUrgot
p832
sVname
p833
VUrgot
p834
ssV99
p835
(dp836
Vtitle
p837
Vthe Lady of Luminosity
p838
sVid
p839
I99
sVkey
p840
VLux
p841
sVname
p842
VLux
p843
ssV98
p844
(dp845
Vtitle
p846
Vthe Eye of Twilight
p847
sVid
p848
I98
sVkey
p849
VShen
p850
sVname
p851
VShen
p852
ssV91
p853
(dp854
Vtitle
p855
Vthe Blade's Shadow
p856
sVid
p857
I91
sVkey
p858
VTalon
p859
sVname
p860
VTalon
p861
ssV90
p862
(dp863
Vtitle
p864
Vthe Prophet of the Void
p865
sVid
p866
I90
sVkey
p867
VMalzahar
p868
sVname
p869
VMalzahar
p870
ssV92
p871
(dp872
Vtitle
p873
Vthe Exile
p874
sVid
p875
I92
sVkey
p876
VRiven
p877
sVname
p878
VRiven
p879
ssV223
p880
(dp881
Vtitle
p882
Vthe River King
p883
sVid
p884
I223
sVkey
p885
VTahmKench
p886
sVname
p887
VTahm Kench
p888
ssV161
p889
(dp890
Vtitle
p891
Vthe Eye of the Void
p892
sVid
p893
I161
sVkey
p894
VVelkoz
p895
sVname
p896
VVel'Koz
p897
ssV96
p898
(dp899
Vtitle
p900
Vthe Mouth of the Abyss
p901
sVid
p902
I96
sVkey
p903
VKogMaw
p904
sVname
p905
VKog'Maw
p906
ssV11
p907
(dp908
Vtitle
p909
Vthe Wuju Bladesman
p910
sVid
p911
I11
sVkey
p912
VMasterYi
p913
sVname
p914
VMaster Yi
p915
ssV10
p916
(dp917
Vtitle
p918
VThe Judicator
p919
sVid
p920
I10
sVkey
p921
VKayle
p922
sVname
p923
VKayle
p924
ssV13
p925
(dp926
Vtitle
p927
Vthe Rune Mage
p928
sVid
p929
I13
sVkey
p930
VRyze
p931
sVname
p932
VRyze
p933
ssV12
p934
(dp935
Vtitle
p936
Vthe Minotaur
p937
sVid
p938
I12
sVkey
p939
VAlistar
p940
sVname
p941
VAlistar
p942
ssV15
p943
(dp944
Vtitle
p945
Vthe Battle Mistress
p946
sVid
p947
I15
sVkey
p948
VSivir
p949
sVname
p950
VSivir
p951
ssV14
p952
(dp953
Vtitle
p954
VThe Undead Juggernaut
p955
sVid
p956
I14
sVkey
p957
VSion
p958
sVname
p959
VSion
p960
ssV17
p961
(dp962
Vtitle
p963
Vthe Swift Scout
p964
sVid
p965
I17
sVkey
p966
VTeemo
p967
sVname
p968
VTeemo
p969
ssV16
p970
(dp971
Vtitle
p972
Vthe Starchild
p973
sVid
p974
I16
sVkey
p975
VSoraka
p976
sVname
p977
VSoraka
p978
ssV19
p979
(dp980
Vtitle
p981
Vthe Uncaged Wrath of Zaun
p982
sVid
p983
I19
sVkey
p984
VWarwick
p985
sVname
p986
VWarwick
p987
ssV18
p988
(dp989
Vtitle
p990
Vthe Yordle Gunner
p991
sVid
p992
I18
sVkey
p993
VTristana
p994
sVname
p995
VTristana
p996
ssV150
p997
(dp998
Vtitle
p999
Vthe Missing Link
p1000
sVid
p1001
I150
sVkey
p1002
VGnar
p1003
sVname
p1004
VGnar
p1005
ssV154
p1006
(dp1007
Vtitle
p1008
Vthe Secret Weapon
p1009
sVid
p1010
I154
sVkey
p1011
VZac
p1012
sVname
p1013
VZac
p1014
ssV157
p1015
(dp1016
Vtitle
p1017
Vthe Unforgiven
p1018
sVid
p1019
I157
sVkey
p1020
VYasuo
p1021
sVname
p1022
VYasuo
p1023
ssV238
p1024
(dp1025
Vtitle
p1026
Vthe Master of Shadows
p1027
sVid
p1028
I238
sVkey
p1029
VZed
p1030
sVname
p1031
VZed
p1032
ssV236
p1033
(dp1034
Vtitle
p1035
Vthe Purifier
p1036
sVid
p1037
I236
sVkey
p1038
VLucian
p1039
sVname
p1040
VLucian
p1041
ssV48
p1042
(dp1043
Vtitle
p1044
Vthe Troll King
p1045
sVid
p1046
I48
sVkey
p1047
VTrundle
p1048
sVname
p1049
VTrundle
p1050
ssV86
p1051
(dp1052
Vtitle
p1053
VThe Might of Demacia
p1054
sVid
p1055
I86
sVkey
p1056
VGaren
p1057
sVname
p1058
VGaren
p1059
ssV44
p1060
(dp1061
Vtitle
p1062
Vthe Shield of Valoran
p1063
sVid
p1064
I44
sVkey
p1065
VTaric
p1066
sVname
p1067
VTaric
p1068
ssV45
p1069
(dp1070
Vtitle
p1071
Vthe Tiny Master of Evil
p1072
sVid
p1073
I45
sVkey
p1074
VVeigar
p1075
sVname
p1076
VVeigar
p1077
ssV42
p1078
(dp1079
Vtitle
p1080
Vthe Daring Bombardier
p1081
sVid
p1082
I42
sVkey
p1083
VCorki
p1084
sVname
p1085
VCorki
p1086
ssV43
p1087
(dp1088
Vtitle
p1089
Vthe Enlightened One
p1090
sVid
p1091
I43
sVkey
p1092
VKarma
p1093
sVname
p1094
VKarma
p1095
ssV40
p1096
(dp1097
Vtitle
p1098
Vthe Storm's Fury
p1099
sVid
p1100
I40
sVkey
p1101
VJanna
p1102
sVname
p1103
VJanna
p1104
ssV41
p1105
(dp1106
Vtitle
p1107
Vthe Saltwater Scourge
p1108
sVid
p1109
I41
sVkey
p1110
VGangplank
p1111
sVname
p1112
VGangplank
p1113
ssV1
p1114
(dp1115
Vtitle
p1116
Vthe Dark Child
p1117
sVid
p1118
I1
sVkey
p1119
VAnnie
p1120
sVname
p1121
VAnnie
p1122
ssV5
p1123
(dp1124
Vtitle
p1125
Vthe Seneschal of Demacia
p1126
sVid
p1127
I5
sVkey
p1128
VXinZhao
p1129
sVname
p1130
VXin Zhao
p1131
ssV9
p1132
(dp1133
Vtitle
p1134
Vthe Harbinger of Doom
p1135
sVid
p1136
I9
sVkey
p1137
VFiddlesticks
p1138
sVname
p1139
VFiddlesticks
p1140
ssV201
p1141
(dp1142
Vtitle
p1143
Vthe Heart of the Freljord
p1144
sVid
p1145
I201
sVkey
p1146
VBraum
p1147
sVname
p1148
VBraum
p1149
ssV203
p1150
(dp1151
Vtitle
p1152
VThe Eternal Hunters
p1153
sVid
p1154
I203
sVkey
p1155
VKindred
p1156
sVname
p1157
VKindred
p1158
ssV202
p1159
(dp1160
Vtitle
p1161
Vthe Virtuoso
p1162
sVid
p1163
I202
sVkey
p1164
VJhin
p1165
sVname
p1166
VJhin
p1167
ssV143
p1168
(dp1169
Vtitle
p1170
VRise of the Thorns
p1171
sVid
p1172
I143
sVkey
p1173
VZyra
p1174
sVname
p1175
VZyra
p1176
ssV141
p1177
(dp1178
Vtitle
p1179
Vthe Shadow Reaper
p1180
sVid
p1181
I141
sVkey
p1182
VKayn
p1183
sVname
p1184
VKayn
p1185
ssV77
p1186
(dp1187
Vtitle
p1188
Vthe Spirit Walker
p1189
sVid
p1190
I77
sVkey
p1191
VUdyr
p1192
sVname
p1193
VUdyr
p1194
ssV76
p1195
(dp1196
Vtitle
p1197
Vthe Bestial Huntress
p1198
sVid
p1199
I76
sVkey
p1200
VNidalee
p1201
sVname
p1202
VNidalee
p1203
ssV75
p1204
(dp1205
Vtitle
p1206
Vthe Curator of the Sands
p1207
sVid
p1208
I75
sVkey
p1209
VNasus
p1210
sVname
p1211
VNasus
p1212
ssV74
p1213
(dp1214
Vtitle
p1215
Vthe Revered Inventor
p1216
sVid
p1217
I74
sVkey
p1218
VHeimerdinger
p1219
sVname
p1220
VHeimerdinger
p1221
ssV72
p1222
(dp1223
Vtitle
p1224
Vthe Crystal Vanguard
p1225
sVid
p1226
I72
sVkey
p1227
VSkarner
p1228
sVname
p1229
VSkarner
p1230
ssV79
p1231
(dp1232
Vtitle
p1233
Vthe Rabble Rouser
p1234
sVid
p1235
I79
sVkey
p1236
VGragas
p1237
sVname
p1238
VGragas
p1239
ssV78
p1240
(dp1241
Vtitle
p1242
VKeeper of the Hammer
p1243
sVid
p1244
I78
sVkey
p1245
VPoppy
p1246
sVname
p1247
VPoppy
p1248
sss.