(dp0
I1
F0.49767555664301444
sI2
F0.5396206806962848
sI3
F0.5371988350542759
sI4
F0.507242415960645
sI5
F0.4788060871269022
sI6
F0.5204067418860565
sI7
F0.5459761203287331
sI8
F0.5089722675367048
sI9
F0.49515018773466835
sI10
F0.48820257049683485
sI11
F0.49146277980218633
sI12
F0.5166321192379825
sI13
F0.5769321118158327
sI14
F0.48767955155903303
sI15
F0.5156144686587284
sI16
F0.45813127814340143
sI17
F0.4905692057983993
sI18
F0.49542510774620296
sI19
F0.4773327912177272
sI20
F0.5598186257411929
sI21
F0.4877360866280534
sI22
F0.5176635694928378
sI23
F0.48120759319966455
sI24
F0.49090629642912037
sI25
F0.5117879789713294
sI26
F0.5079499682001272
sI27
F0.47436948944022966
sI28
F0.5465138564145808
sI29
F0.479811802330945
sI30
F0.4973619416109743
sI31
F0.5021117125691511
sI32
F0.47749263777871265
sI33
F0.4601184854468962
sI34
F0.47429231658001153
sI35
F0.508893280632411
sI36
F0.4976267034144848
sI37
F0.4500158302991927
sI38
F0.5091394262841895
sI39
F0.5059869996578857
sI40
F0.467442311421369
sI41
F0.5137839879154078
sI42
F0.5254854368932039
sI43
F0.5374474053295932
sI44
F0.476070309780717
sI45
F0.4826373626373626
sI48
F0.4991494187694925
sI50
F0.4952191235059761
sI51
F0.5159324028922145
sI53
F0.4924604438780928
sI54
F0.4925913730655252
sI55
F0.5039013340045306
sI56
F0.5002953337271117
sI57
F0.49141214516708587
sI58
F0.5141856392294221
sI59
F0.4766783625730994
sI60
F0.526813880126183
sI61
F0.5078627591136526
sI62
F0.48301982072970584
sI63
F0.4736880573015641
sI64
F0.533929195585959
sI67
F0.4850689450977075
sI68
F0.506741050674105
sI69
F0.5339116719242902
sI72
F0.4926739926739927
sI74
F0.4832124177492829
sI75
F0.4936913061012848
sI76
F0.5453060011883542
sI77
F0.522107243650047
sI78
F0.5231520815632965
sI79
F0.5322886597938145
sI80
F0.5008695652173913
sI81
F0.5172059984214681
sI82
F0.5083658672615727
sI83
F0.46583442838370565
sI84
F0.5087993742667188
sI85
F0.504829489453972
sI86
F0.47765308131521955
sI89
F0.48969359331476325
sI90
F0.47107771853288094
sI91
F0.4843834627189023
sI92
F0.5026407928312859
sI96
F0.4865180949905789
sI98
F0.5162422297974735
sI99
F0.4961440610589919
sI101
F0.4745508982035928
sI102
F0.4774754431523089
sI103
F0.49347942595128924
sI104
F0.5216829408385985
sI105
F0.4935206021572127
sI106
F0.5059029296020988
sI107
F0.5269483568075117
sI110
F0.4981270989408422
sI111
F0.5248148148148148
sI112
F0.521495700859828
sI113
F0.46932114882506526
sI114
F0.49087337316853563
sI115
F0.4956080153719462
sI117
F0.5002175426383572
sI119
F0.4859620399005518
sI120
F0.48833069620253167
sI121
F0.5038628226870171
sI122
F0.5061548090965992
sI126
F0.494149173738276
sI127
F0.515890613451589
sI131
F0.47515187730305747
sI133
F0.4882414151925078
sI134
F0.5308747191446502
sI136
F0.49319877139096097
sI141
F0.5015318200807687
sI516
F0.5309414088215931
sI143
F0.51032753024491
sI150
F0.5148658448150834
sI154
F0.5012028869286287
sI157
F0.48614271908220846
sI161
F0.47861802367721673
sI163
F0.5452781371280725
sI164
F0.5344549847861106
sI201
F0.517429452217216
sI202
F0.5134190180725858
sI203
F0.5118360277136259
sI222
F0.4910502927862453
sI223
F0.5449368214984873
sI236
F0.5379298996215238
sI238
F0.5029199290565385
sI240
F0.4986887230179544
sI245
F0.500875883994031
sI254
F0.48631014796691135
sI266
F0.4950029394473839
sI267
F0.4887507211076213
sI268
F0.49921142963169124
sI412
F0.535122653190991
sI420
F0.5017645837658293
sI421
F0.5175497429018556
sI427
F0.5186074429771909
sI429
F0.5287019681349578
sI432
F0.5173809276745875
sI497
F0.5102190137066485
sI498
F0.5033913400931762
s.