(dp0
S'evelynn'
p1
I28
sS'zed'
p2
I238
sS'nunu'
p3
I20
sS'swain'
p4
I50
sS'taric'
p5
I44
sS'skarner'
p6
I72
sS'ekko'
p7
I245
sS'nasus'
p8
I75
sS'graves'
p9
I104
sS'jax'
p10
I24
sS'shaco'
p11
I35
sS'morgana'
p12
I25
sS'aatrox'
p13
I266
sS'xayah'
p14
I498
sS'nidalee'
p15
I76
sS'kassadin'
p16
I38
sS'sona'
p17
I37
sS'reksai'
p18
I421
sS'cassiopeia'
p19
I69
sS'taliyah'
p20
I163
sS'malzahar'
p21
I90
sS'amumu'
p22
I32
sS'khazix'
p23
I121
sS'olaf'
p24
I2
sS'irelia'
p25
I39
sS'riven'
p26
I92
sS'nami'
p27
I267
sS'jhin'
p28
I202
sS'kogmaw'
p29
I96
sS'gangplank'
p30
I41
sS'syndra'
p31
I134
sS'poppy'
p32
I78
sS'volibear'
p33
I106
sS'kennen'
p34
I85
sS'ryze'
p35
I13
sS'gragas'
p36
I79
sS'garen'
p37
I86
sS'diana'
p38
I131
sS'karthus'
p39
I30
sS'jayce'
p40
I126
sS'bard'
p41
I432
sS'sion'
p42
I14
sS'elise'
p43
I60
sS'alistar'
p44
I12
sS'vayne'
p45
I67
sS'tahmkench'
p46
I223
sS'ezreal'
p47
I81
sS'mordekaiser'
p48
I82
sS'lux'
p49
I99
sS'fiora'
p50
I114
sS'kalista'
p51
I429
sS'twistedfate'
p52
I4
sS'kled'
p53
I240
sS'kindred'
p54
I203
sS'illaoi'
p55
I420
sS'darius'
p56
I122
sS'drmundo'
p57
I36
sS'tryndamere'
p58
I23
sS'hecarim'
p59
I120
sS'lissandra'
p60
I127
sS'anivia'
p61
I34
sS'yorick'
p62
I83
sS'nocturne'
p63
I56
sS'jarvaniv'
p64
I59
sS'ashe'
p65
I22
sS'malphite'
p66
I54
sS'aurelionsol'
p67
I136
sS'annie'
p68
I1
sS'twitch'
p69
I29
sS'yasuo'
p70
I157
sS'kayle'
p71
I10
sS'janna'
p72
I40
sS'blitzcrank'
p73
I53
sS'zac'
p74
I154
sS'talon'
p75
I91
sS'sivir'
p76
I15
sS'quinn'
p77
I133
sS'heimerdinger'
p78
I74
sS'leblanc'
p79
I7
sS'xinzhao'
p80
I5
sS'katarina'
p81
I55
sS'chogath'
p82
I31
sS'shen'
p83
I98
sS'ivern'
p84
I427
sS'jinx'
p85
I222
sS'caitlyn'
p86
I51
sS'missfortune'
p87
I21
sS'renekton'
p88
I58
sS'viktor'
p89
I112
sS'brand'
p90
I63
sS'warwick'
p91
I19
sS'corki'
p92
I42
sS'braum'
p93
I201
sS'maokai'
p94
I57
sS'draven'
p95
I119
sS'ornn'
p96
I516
sS'thresh'
p97
I412
sS'urgot'
p98
I6
sS'tristana'
p99
I18
sS'galio'
p100
I3
sS'vladimir'
p101
I8
sS'orianna'
p102
I61
sS'masteryi'
p103
I11
sS'soraka'
p104
I16
sS'varus'
p105
I110
sS'fizz'
p106
I105
sS'veigar'
p107
I45
sS'rengar'
p108
I107
sS'nautilus'
p109
I111
sS'vi'
p110
I254
sS'lulu'
p111
I117
sS'pantheon'
p112
I80
sS'trundle'
p113
I48
sS'ahri'
p114
I103
sS'kayn'
p115
I141
sS'shyvana'
p116
I102
sS'leesin'
p117
I64
sS'udyr'
p118
I77
sS'camille'
p119
I164
sS'lucian'
p120
I236
sS'zyra'
p121
I143
sS'fiddlesticks'
p122
I9
sS'zilean'
p123
I26
sS'rakan'
p124
I497
sS'rammus'
p125
I33
sS'rumble'
p126
I68
sS'gnar'
p127
I150
sS'wukong'
p128
I62
sS'sejuani'
p129
I113
sS'xerath'
p130
I101
sS'ziggs'
p131
I115
sS'velkoz'
p132
I161
sS'singed'
p133
I27
sS'karma'
p134
I43
sS'akali'
p135
I84
sS'leona'
p136
I89
sS'azir'
p137
I268
sS'teemo'
p138
I17
s.